; generated by Component: ARM Compiler 5.06 update 7 (build 960) Tool: ArmCC [4d365d]
; commandline ArmCC [--cpp --list --split_sections --debug -c --asm --interleave -o.\camera.o --asm_dir=.\ --list_dir=.\ --depend=.\camera.d --cpu=Cortex-M4.fp.sp --apcs=interwork -O1 --diag_suppress=9931 -I. -I..\..\common\inc -I..\common\inc -Iinc -IC:\Keil_v5\ARM\RV31\INC -IC:\Keil_v5\ARM\CMSIS\Include -D__UVISION_VERSION=534 -DCORE_M4 -DIPC_MASTER -DPIXY -DKEIL --omf_browse=.\camera.crf src\camera.cpp]
                          THUMB

                          AREA ||i._Z10cam_getAECv||, CODE, READONLY, ALIGN=2

                  _Z10cam_getAECv PROC ; cam_getAEC()
;;;1720   
;;;1721   uint32_t cam_getAEC()
000000  4801              LDR      r0,|L1.8|
;;;1722   {
;;;1723       return g_aec;
000002  7880              LDRB     r0,[r0,#2]  ; g_aec
;;;1724   }
000004  4770              BX       lr
;;;1725   
                          ENDP

000006  0000              DCW      0x0000
                  |L1.8|
                          DCD      ||.data||

                          AREA ||i._Z10cam_getAWBv||, CODE, READONLY, ALIGN=2

                  _Z10cam_getAWBv PROC ; cam_getAWB()
;;;1679   
;;;1680   uint32_t cam_getAWB()
000000  4801              LDR      r0,|L2.8|
;;;1681   {
;;;1682       return g_awb;
000002  7840              LDRB     r0,[r0,#1]  ; g_awb
;;;1683   }
000004  4770              BX       lr
;;;1684                                  
                          ENDP

000006  0000              DCW      0x0000
                  |L2.8|
                          DCD      ||.data||

                          AREA ||i._Z10cam_getECVv||, CODE, READONLY, ALIGN=2

                  _Z10cam_getECVv PROC ; cam_getECV()
;;;1735   
;;;1736   uint32_t cam_getECV()
000000  b570              PUSH     {r4-r6,lr}
;;;1737   {
;;;1738       uint32_t ecv;
;;;1739   
;;;1740       ecv = g_sccb->Read32(0xcc04);
000002  4d07              LDR      r5,|L3.32|
000004  f64c4104          MOV      r1,#0xcc04
000008  68e8              LDR      r0,[r5,#0xc]  ; g_sccb
00000a  f7fffffe          BL       _ZN5CSccb6Read32Et ; CSccb::Read32(unsigned short)
;;;1741       ecv <<= 16;
00000e  0404              LSLS     r4,r0,#16
;;;1742       ecv |= g_sccb->Read16(0xcc0e);
000010  f64c410e          MOV      r1,#0xcc0e
000014  68e8              LDR      r0,[r5,#0xc]  ; g_sccb
000016  f7fffffe          BL       _ZN5CSccb6Read16Et ; CSccb::Read16(unsigned short)
00001a  4320              ORRS     r0,r0,r4
;;;1743   
;;;1744       return ecv;
;;;1745   }
00001c  bd70              POP      {r4-r6,pc}
;;;1746   
                          ENDP

00001e  0000              DCW      0x0000
                  |L3.32|
                          DCD      ||.data||

                          AREA ||i._Z10cam_getFPSv||, CODE, READONLY, ALIGN=2

                  _Z10cam_getFPSv PROC ; cam_getFPS()
;;;2069   
;;;2070   float cam_getFPS()
000000  b500              PUSH     {lr}
;;;2071   {
;;;2072       float fps = 0.0f;
000002  ed9f0a08          VLDR     s0,|L4.36|
;;;2073       
;;;2074       uint32_t fp = cam_getFramePeriod();
000006  f7fffffe          BL       _Z18cam_getFramePeriodv ; cam_getFramePeriod()
;;;2075       if (fp>0)
00000a  2800              CMP      r0,#0
00000c  d009              BEQ      |L4.34|
;;;2076           fps = 1000000.0f/cam_getFramePeriod();
00000e  f7fffffe          BL       _Z18cam_getFramePeriodv ; cam_getFramePeriod()
000012  ee000a10          VMOV     s0,r0
000016  ed9f1a04          VLDR     s2,|L4.40|
00001a  eef80ac0          VCVT.F32.S32 s1,s0
00001e  ee810a20          VDIV.F32 s0,s2,s1
                  |L4.34|
;;;2077       return fps;
;;;2078   }
000022  bd00              POP      {pc}
;;;2079   
                          ENDP

                  |L4.36|
000024  00000000          DCFS     0x00000000 ; 0
                  |L4.40|
000028  49742400          DCFS     0x49742400 ; 1000000

                          AREA ||i._Z10cam_getWBVv||, CODE, READONLY, ALIGN=2

                  _Z10cam_getWBVv PROC ; cam_getWBV()
;;;1690   
;;;1691   int32_t cam_getWBV()
000000  4805              LDR      r0,|L5.24|
;;;1692   {
;;;1693       uint16_t wbv;
;;;1694   
;;;1695       // can't get WBV while AWB is enabled
;;;1696       if (g_awb)
000002  7841              LDRB     r1,[r0,#1]  ; g_awb
000004  2900              CMP      r1,#0
000006  d002              BEQ      |L5.14|
;;;1697           return -1;
000008  f04f30ff          MOV      r0,#0xffffffff
;;;1698       wbv = g_sccb->Read16(0xcc18);
;;;1699   
;;;1700       return wbv;
;;;1701   }
00000c  4770              BX       lr
                  |L5.14|
00000e  f64c4118          MOV      r1,#0xcc18            ;1698
000012  68c0              LDR      r0,[r0,#0xc]          ;1698  ; g_sccb
000014  f7ffbffe          B.W      _ZN5CSccb6Read16Et ; CSccb::Read16(unsigned short)
;;;1702   
                          ENDP

                  |L5.24|
                          DCD      ||.data||

                          AREA ||i._Z10cam_setAECRKh||, CODE, READONLY, ALIGN=2

                  _Z10cam_setAECRKh PROC ; cam_setAEC(const unsigned char&)
;;;1702   
;;;1703   int32_t cam_setAEC(const uint8_t &aec)
000000  b510              PUSH     {r4,lr}
;;;1704   {
;;;1705       if (aec!=g_aec)
000002  4c0b              LDR      r4,|L6.48|
000004  7802              LDRB     r2,[r0,#0]
000006  78a0              LDRB     r0,[r4,#2]  ; g_aec
000008  4282              CMP      r2,r0
00000a  d009              BEQ      |L6.32|
00000c  4620              MOV      r0,r4
;;;1706       {
;;;1707           if (aec==0)
;;;1708           {
;;;1709               g_sccb->Write8(0xcc00, 1); // turn off AEC, AGC
00000e  f44f414c          MOV      r1,#0xcc00
000012  68c0              LDR      r0,[r0,#0xc]
000014  b132              CBZ      r2,|L6.36|
;;;1710               g_aec = 0;
;;;1711           }
;;;1712           else
;;;1713           {
;;;1714               g_sccb->Write8(0xcc00, 8); // turn on AEC, AGC
000016  2208              MOVS     r2,#8
000018  f7fffffe          BL       _ZN5CSccb6Write8Eth ; CSccb::Write8(unsigned short, unsigned char)
;;;1715               g_aec = 1;
00001c  2001              MOVS     r0,#1
00001e  70a0              STRB     r0,[r4,#2]
                  |L6.32|
;;;1716           }
;;;1717       }
;;;1718       return 0;
000020  2000              MOVS     r0,#0
;;;1719   }
000022  bd10              POP      {r4,pc}
                  |L6.36|
000024  2201              MOVS     r2,#1                 ;1709
000026  f7fffffe          BL       _ZN5CSccb6Write8Eth ; CSccb::Write8(unsigned short, unsigned char)
00002a  2000              MOVS     r0,#0                 ;1710
00002c  70a0              STRB     r0,[r4,#2]            ;1710
00002e  e7f7              B        |L6.32|
;;;1720   
                          ENDP

                  |L6.48|
                          DCD      ||.data||

                          AREA ||i._Z10cam_setAWBRKh||, CODE, READONLY, ALIGN=2

                  _Z10cam_setAWBRKh PROC ; cam_setAWB(const unsigned char&)
;;;1659   
;;;1660   int32_t cam_setAWB(const uint8_t &awb)
000000  b510              PUSH     {r4,lr}
;;;1661   {
;;;1662       if (awb!=g_awb)
000002  4c0d              LDR      r4,|L7.56|
000004  7802              LDRB     r2,[r0,#0]
000006  7860              LDRB     r0,[r4,#1]  ; g_awb
000008  4282              CMP      r2,r0
00000a  d00c              BEQ      |L7.38|
00000c  4620              MOV      r0,r4
;;;1663       {
;;;1664           if (awb==0)
;;;1665           {
;;;1666               g_sccb->Write8(0xcc01, 0);
00000e  f64c4101          MOV      r1,#0xcc01
000012  68c0              LDR      r0,[r0,#0xc]
000014  b14a              CBZ      r2,|L7.42|
;;;1667               g_awb = 0;
;;;1668           }
;;;1669           else
;;;1670           {
;;;1671               g_sccb->Write8(0xcc01, 1);
000016  2201              MOVS     r2,#1
000018  f7fffffe          BL       _ZN5CSccb6Write8Eth ; CSccb::Write8(unsigned short, unsigned char)
;;;1672               g_awb = 1;
00001c  2001              MOVS     r0,#1
00001e  7060              STRB     r0,[r4,#1]
                  |L7.32|
;;;1673           }
;;;1674           // wait for this to propagate before setting other registers, for example, setting white-balance value
;;;1675           delayms(20);
000020  2014              MOVS     r0,#0x14
000022  f7fffffe          BL       delayms
                  |L7.38|
;;;1676       }
;;;1677       return 0;
000026  2000              MOVS     r0,#0
;;;1678   }
000028  bd10              POP      {r4,pc}
                  |L7.42|
00002a  2200              MOVS     r2,#0                 ;1666
00002c  f7fffffe          BL       _ZN5CSccb6Write8Eth ; CSccb::Write8(unsigned short, unsigned char)
000030  2000              MOVS     r0,#0                 ;1667
000032  7060              STRB     r0,[r4,#1]            ;1667
000034  e7f4              B        |L7.32|
;;;1679   
                          ENDP

000036  0000              DCW      0x0000
                  |L7.56|
                          DCD      ||.data||

                          AREA ||i._Z10cam_setECVRKj||, CODE, READONLY, ALIGN=2

                  _Z10cam_setECVRKj PROC ; cam_setECV(const unsigned&)
;;;1725   
;;;1726   int32_t cam_setECV(const uint32_t &ecv)
000000  b570              PUSH     {r4-r6,lr}
;;;1727   {
;;;1728       uint32_t val = ecv;
000002  6804              LDR      r4,[r0,#0]
;;;1729       g_sccb->Write16(0xcc0e, val&0xffff);
000004  4d07              LDR      r5,|L8.36|
000006  b2a2              UXTH     r2,r4
000008  f64c410e          MOV      r1,#0xcc0e
00000c  68e8              LDR      r0,[r5,#0xc]  ; g_sccb
00000e  f7fffffe          BL       _ZN5CSccb7Write16Ett ; CSccb::Write16(unsigned short, unsigned short)
;;;1730       val >>= 16;
000012  0c22              LSRS     r2,r4,#16
;;;1731       g_sccb->Write32(0xcc04, val);
000014  f64c4104          MOV      r1,#0xcc04
000018  68e8              LDR      r0,[r5,#0xc]  ; g_sccb
00001a  f7fffffe          BL       _ZN5CSccb7Write32Etj ; CSccb::Write32(unsigned short, unsigned)
;;;1732   
;;;1733       return 0;       
00001e  2000              MOVS     r0,#0
;;;1734   }
000020  bd70              POP      {r4-r6,pc}
;;;1735   
                          ENDP

000022  0000              DCW      0x0000
                  |L8.36|
                          DCD      ||.data||

                          AREA ||i._Z10cam_setWBVRKj||, CODE, READONLY, ALIGN=2

                  _Z10cam_setWBVRKj PROC ; cam_setWBV(const unsigned&)
;;;1684                                  
;;;1685   int32_t cam_setWBV(const uint32_t &wbv)
000000  b510              PUSH     {r4,lr}
;;;1686   {
;;;1687       g_sccb->Write16(0xcc18, wbv);
000002  8800              LDRH     r0,[r0,#0]
000004  f64c4118          MOV      r1,#0xcc18
000008  b282              UXTH     r2,r0
00000a  4803              LDR      r0,|L9.24|
00000c  68c0              LDR      r0,[r0,#0xc]  ; g_sccb
00000e  f7fffffe          BL       _ZN5CSccb7Write16Ett ; CSccb::Write16(unsigned short, unsigned short)
;;;1688       return 0;           
000012  2000              MOVS     r0,#0
;;;1689   }
000014  bd10              POP      {r4,pc}
;;;1690   
                          ENDP

000016  0000              DCW      0x0000
                  |L9.24|
                          DCD      ||.data||

                          AREA ||i._Z11cam_getModev||, CODE, READONLY, ALIGN=2

                  _Z11cam_getModev PROC ; cam_getMode()
;;;1654   
;;;1655   uint32_t cam_getMode()
000000  4801              LDR      r0,|L10.8|
;;;1656   {
;;;1657       return g_mode;
000002  7800              LDRB     r0,[r0,#0]  ; g_mode
;;;1658   }
000004  4770              BX       lr
;;;1659   
                          ENDP

000006  0000              DCW      0x0000
                  |L10.8|
                          DCD      ||.data||

                          AREA ||i._Z11cam_getReg8RKt||, CODE, READONLY, ALIGN=2

                  _Z11cam_getReg8RKt PROC ; cam_getReg8(const unsigned short&)
;;;2045   
;;;2046   int32_t cam_getReg8(const uint16_t &reg)
000000  8801              LDRH     r1,[r0,#0]
;;;2047   {
;;;2048       return g_sccb->Read8(reg);
000002  4802              LDR      r0,|L11.12|
000004  68c0              LDR      r0,[r0,#0xc]  ; g_sccb
000006  f7ffbffe          B.W      _ZN5CSccb5Read8Et ; CSccb::Read8(unsigned short)
;;;2049   }
;;;2050   
                          ENDP

00000a  0000              DCW      0x0000
                  |L11.12|
                          DCD      ||.data||

                          AREA ||i._Z11cam_setModeRKh||, CODE, READONLY, ALIGN=2

                  _Z11cam_setModeRKh PROC ; cam_setMode(const unsigned char&)
;;;1631   
;;;1632   int32_t cam_setMode(const uint8_t &mode)
000000  b508              PUSH     {r3,lr}
;;;1633   {
;;;1634       if (mode==0) // raw video
000002  7801              LDRB     r1,[r0,#0]
;;;1635       {
;;;1636           uint8_t saturation;
;;;1637           g_mode = 0;
000004  480b              LDR      r0,|L12.52|
000006  2900              CMP      r1,#0                 ;1634
000008  d008              BEQ      |L12.28|
;;;1638           //g_sccb->Write16(0x3210, 0x00a8); // enable gamma
;;;1639           //g_sccb->Write16(0xc87c, 0x005a); // increase black level clipping
;;;1640           prm_get("Color saturation", &saturation, END);
;;;1641           cam_setSaturation(saturation);
;;;1642           //cam_setBrightness(g_brightness);
;;;1643       }
;;;1644       else if (mode!=0) // CCC, processing
;;;1645       {
;;;1646           g_mode = 1;
00000a  2101              MOVS     r1,#1
00000c  7001              STRB     r1,[r0,#0]
;;;1647           //g_sccb->Write16(0x3210, 0x0018); // disable gamma
;;;1648           //g_sccb->Write16(0xc87c, 0x000a); // decrease black-level clipping 
;;;1649           cam_setSaturation(CAM_SATURATION_DEFAULT);
00000e  205a              MOVS     r0,#0x5a
000010  9000              STR      r0,[sp,#0]
000012  4668              MOV      r0,sp
000014  f7fffffe          BL       _Z17cam_setSaturationRKh ; cam_setSaturation(const unsigned char&)
                  |L12.24|
;;;1650           //cam_setBrightness(g_brightness);
;;;1651       }
;;;1652       return 0;
000018  2000              MOVS     r0,#0
;;;1653   }
00001a  bd08              POP      {r3,pc}
                  |L12.28|
00001c  2100              MOVS     r1,#0                 ;1637
00001e  7001              STRB     r1,[r0,#0]            ;1637
000020  2200              MOVS     r2,#0                 ;1640
000022  4669              MOV      r1,sp                 ;1640
000024  a004              ADR      r0,|L12.56|
000026  f7fffffe          BL       _Z7prm_getPKcz ; prm_get(const char*, ...)
00002a  4668              MOV      r0,sp                 ;1641
00002c  f7fffffe          BL       _Z17cam_setSaturationRKh ; cam_setSaturation(const unsigned char&)
000030  e7f2              B        |L12.24|
;;;1654   
                          ENDP

000032  0000              DCW      0x0000
                  |L12.52|
                          DCD      ||.data||
                  |L12.56|
000038  436f6c6f          DCB      "Color saturation",0
00003c  72207361
000040  74757261
000044  74696f6e
000048  00      
000049  00                DCB      0
00004a  00                DCB      0
00004b  00                DCB      0

                          AREA ||i._Z11cam_setReg8RKtRKh||, CODE, READONLY, ALIGN=2

                  _Z11cam_setReg8RKtRKh PROC ; cam_setReg8(const unsigned short&, const unsigned char&)
;;;2024   
;;;2025   int32_t cam_setReg8(const uint16_t &reg, const uint8_t &value)
000000  b510              PUSH     {r4,lr}
;;;2026   {
;;;2027       g_sccb->Write8(reg, value);
000002  780a              LDRB     r2,[r1,#0]
000004  8801              LDRH     r1,[r0,#0]
000006  4803              LDR      r0,|L13.20|
000008  68c0              LDR      r0,[r0,#0xc]  ; g_sccb
00000a  f7fffffe          BL       _ZN5CSccb6Write8Eth ; CSccb::Write8(unsigned short, unsigned char)
;;;2028       return 0;
00000e  2000              MOVS     r0,#0
;;;2029   }
000010  bd10              POP      {r4,pc}
;;;2030   
                          ENDP

000012  0000              DCW      0x0000
                  |L13.20|
                          DCD      ||.data||

                          AREA ||i._Z12cam_getFramePhjhtttt||, CODE, READONLY, ALIGN=2

                  _Z12cam_getFramePhjhtttt PROC ; cam_getFrame(unsigned char*, unsigned, unsigned char, unsigned short, unsigned short, unsigned short, unsigned short)
;;;1809   
;;;1810   int32_t cam_getFrame(uint8_t *memory, uint32_t memSize, uint8_t type, uint16_t xOffset, uint16_t yOffset, uint16_t xWidth, uint16_t yWidth)
000000  e92d41f0          PUSH     {r4-r8,lr}
;;;1811   {
000004  b090              SUB      sp,sp,#0x40
000006  4607              MOV      r7,r0
000008  e9dd8416          LDRD     r8,r4,[sp,#0x58]
00000c  9d18              LDR      r5,[sp,#0x60]
;;;1812       int32_t res;
;;;1813       int32_t responseInt = -1;
00000e  f04f3cff          MOV      r12,#0xffffffff
000012  f8cdc03c          STR      r12,[sp,#0x3c]
;;;1814   
;;;1815       if (xWidth*yWidth>memSize)
000016  fb04f005          MUL      r0,r4,r5
00001a  4288              CMP      r0,r1
00001c  d904              BLS      |L14.40|
;;;1816           return -2;
00001e  f06f0001          MVN      r0,#1
                  |L14.34|
;;;1817   
;;;1818       // check resolutions
;;;1819       res = type >> 4;
;;;1820       if (res==0)
;;;1821       {
;;;1822           if (xOffset+xWidth>CAM_RES0_WIDTH || yOffset+yWidth>CAM_RES0_HEIGHT)
;;;1823               return -1;
;;;1824       }
;;;1825       else if (res==1) 
;;;1826       {
;;;1827           if (xOffset+xWidth>CAM_RES1_WIDTH || yOffset+yWidth>CAM_RES1_HEIGHT)
;;;1828               return -1;
;;;1829       }
;;;1830       else if (res==2)
;;;1831       {
;;;1832           if (xOffset+xWidth>CAM_RES2_WIDTH || yOffset+yWidth>CAM_RES2_HEIGHT)
;;;1833               return -1;
;;;1834       }
;;;1835       else
;;;1836           return -3;
;;;1837   
;;;1838       // forward call to M0, get frame
;;;1839       g_chirpM0->callSync(g_getFrameM0, 
;;;1840           UINT8(type), UINT32((uint32_t)memory), UINT16(xOffset), UINT16(yOffset), UINT16(xWidth), UINT16(yWidth), END_OUT_ARGS,
;;;1841           &responseInt, END_IN_ARGS);
;;;1842   
;;;1843       if (responseInt==0)
;;;1844       {
;;;1845           g_rawFrame.m_pixels = memory;
;;;1846           g_rawFrame.m_width = xWidth;
;;;1847           g_rawFrame.m_height = yWidth;
;;;1848       }
;;;1849   
;;;1850       //printf("%x %x %x %x %x\n", g_sccb->Read16(0xc909), g_sccb->Read16(0xac00)&0x1f, g_sccb->Read16(0xc8f0), g_sccb->Read16(0xc8ec), g_sccb->Read16(0xc8ee));
;;;1851   
;;;1852       return responseInt;
;;;1853   }
000022  b010              ADD      sp,sp,#0x40
000024  e8bd81f0          POP      {r4-r8,pc}
                  |L14.40|
000028  0910              LSRS     r0,r2,#4              ;1819
00002a  1919              ADDS     r1,r3,r4              ;1822
00002c  eb080605          ADD      r6,r8,r5              ;1822
000030  b130              CBZ      r0,|L14.64|
000032  2801              CMP      r0,#1                 ;1825
000034  d00c              BEQ      |L14.80|
000036  2802              CMP      r0,#2                 ;1830
000038  d012              BEQ      |L14.96|
00003a  f06f0002          MVN      r0,#2                 ;1836
00003e  e7f0              B        |L14.34|
                  |L14.64|
000040  f5b16fa0          CMP      r1,#0x500             ;1822
000044  d802              BHI      |L14.76|
000046  f5b67f48          CMP      r6,#0x320             ;1822
00004a  d910              BLS      |L14.110|
                  |L14.76|
00004c  4660              MOV      r0,r12                ;1823
00004e  e7e8              B        |L14.34|
                  |L14.80|
000050  f5b17f20          CMP      r1,#0x280             ;1827
000054  d802              BHI      |L14.92|
000056  f5b67fc8          CMP      r6,#0x190             ;1827
00005a  d908              BLS      |L14.110|
                  |L14.92|
00005c  4660              MOV      r0,r12                ;1828
00005e  e7e0              B        |L14.34|
                  |L14.96|
000060  f5b17f9e          CMP      r1,#0x13c             ;1832
000064  d801              BHI      |L14.106|
000066  2ed0              CMP      r6,#0xd0              ;1832
000068  d901              BLS      |L14.110|
                  |L14.106|
00006a  4660              MOV      r0,r12                ;1833
00006c  e7d9              B        |L14.34|
                  |L14.110|
00006e  2000              MOVS     r0,#0                 ;1839
000070  a90f              ADD      r1,sp,#0x3c           ;1839
000072  e9cd010b          STRD     r0,r1,[sp,#0x2c]      ;1839
000076  900d              STR      r0,[sp,#0x34]         ;1839
000078  900e              STR      r0,[sp,#0x38]         ;1839
00007a  2002              MOVS     r0,#2                 ;1839
00007c  e9cd0407          STRD     r0,r4,[sp,#0x1c]      ;1839
000080  e9cd0509          STRD     r0,r5,[sp,#0x24]      ;1839
000084  e9cd0303          STRD     r0,r3,[sp,#0xc]       ;1839
000088  e9cd0805          STRD     r0,r8,[sp,#0x14]      ;1839
00008c  2004              MOVS     r0,#4                 ;1839
00008e  e9cd0701          STRD     r0,r7,[sp,#4]         ;1839
000092  4809              LDR      r0,|L14.184|
000094  9200              STR      r2,[sp,#0]            ;1839
000096  2301              MOVS     r3,#1                 ;1839
000098  f9b02006          LDRSH    r2,[r0,#6]            ;1839  ; g_getFrameM0
00009c  4807              LDR      r0,|L14.188|
00009e  2100              MOVS     r1,#0                 ;1839
0000a0  6800              LDR      r0,[r0,#0]            ;1839  ; g_chirpM0
0000a2  f7fffffe          BL       _ZN5Chirp4callEhsz ; Chirp::call(unsigned char, short, ...)
0000a6  980f              LDR      r0,[sp,#0x3c]         ;1843
0000a8  2800              CMP      r0,#0                 ;1843
0000aa  d1ba              BNE      |L14.34|
0000ac  4902              LDR      r1,|L14.184|
0000ae  3118              ADDS     r1,r1,#0x18           ;1845
0000b0  600f              STR      r7,[r1,#0]            ;1845  ; g_rawFrame
0000b2  808c              STRH     r4,[r1,#4]            ;1846
0000b4  80cd              STRH     r5,[r1,#6]            ;1847
0000b6  e7b4              B        |L14.34|
;;;1854   
                          ENDP

                  |L14.184|
                          DCD      ||.data||
                  |L14.188|
                          DCD      g_chirpM0

                          AREA ||i._Z12cam_getReg16RKt||, CODE, READONLY, ALIGN=2

                  _Z12cam_getReg16RKt PROC ; cam_getReg16(const unsigned short&)
;;;2051   
;;;2052   int32_t cam_getReg16(const uint16_t &reg)
000000  8801              LDRH     r1,[r0,#0]
;;;2053   {
;;;2054       return g_sccb->Read16(reg);
000002  4802              LDR      r0,|L15.12|
000004  68c0              LDR      r0,[r0,#0xc]  ; g_sccb
000006  f7ffbffe          B.W      _ZN5CSccb6Read16Et ; CSccb::Read16(unsigned short)
;;;2055   }
;;;2056   
                          ENDP

00000a  0000              DCW      0x0000
                  |L15.12|
                          DCD      ||.data||

                          AREA ||i._Z12cam_getReg32RKt||, CODE, READONLY, ALIGN=2

                  _Z12cam_getReg32RKt PROC ; cam_getReg32(const unsigned short&)
;;;2057   
;;;2058   int32_t cam_getReg32(const uint16_t &reg)
000000  8801              LDRH     r1,[r0,#0]
;;;2059   {
;;;2060       return g_sccb->Read32(reg);
000002  4802              LDR      r0,|L16.12|
000004  68c0              LDR      r0,[r0,#0xc]  ; g_sccb
000006  f7ffbffe          B.W      _ZN5CSccb6Read32Et ; CSccb::Read32(unsigned short)
;;;2061   }
;;;2062   
                          ENDP

00000a  0000              DCW      0x0000
                  |L16.12|
                          DCD      ||.data||

                          AREA ||i._Z12cam_setReg16RKtS0_||, CODE, READONLY, ALIGN=2

                  _Z12cam_setReg16RKtS0_ PROC ; cam_setReg16(const unsigned short&, const unsigned short&)
;;;2031   
;;;2032   int32_t cam_setReg16(const uint16_t &reg, const uint16_t &value)
000000  b510              PUSH     {r4,lr}
;;;2033   {
;;;2034       g_sccb->Write16(reg, value);
000002  880a              LDRH     r2,[r1,#0]
000004  8801              LDRH     r1,[r0,#0]
000006  4803              LDR      r0,|L17.20|
000008  68c0              LDR      r0,[r0,#0xc]  ; g_sccb
00000a  f7fffffe          BL       _ZN5CSccb7Write16Ett ; CSccb::Write16(unsigned short, unsigned short)
;;;2035       return 0;
00000e  2000              MOVS     r0,#0
;;;2036   }
000010  bd10              POP      {r4,pc}
;;;2037   
                          ENDP

000012  0000              DCW      0x0000
                  |L17.20|
                          DCD      ||.data||

                          AREA ||i._Z12cam_setReg32RKtRKj||, CODE, READONLY, ALIGN=2

                  _Z12cam_setReg32RKtRKj PROC ; cam_setReg32(const unsigned short&, const unsigned&)
;;;2038   
;;;2039   int32_t cam_setReg32(const uint16_t &reg, const uint32_t &value)
000000  b510              PUSH     {r4,lr}
;;;2040   {
;;;2041       g_sccb->Write32(reg, value);
000002  680a              LDR      r2,[r1,#0]
000004  8801              LDRH     r1,[r0,#0]
000006  4803              LDR      r0,|L18.20|
000008  68c0              LDR      r0,[r0,#0xc]  ; g_sccb
00000a  f7fffffe          BL       _ZN5CSccb7Write32Etj ; CSccb::Write32(unsigned short, unsigned)
;;;2042       return 0;
00000e  2000              MOVS     r0,#0
;;;2043   }
000010  bd10              POP      {r4,pc}
;;;2044   
                          ENDP

000012  0000              DCW      0x0000
                  |L18.20|
                          DCD      ||.data||

                          AREA ||i._Z13cam_getTimingPtS_S_S_||, CODE, READONLY, ALIGN=2

                  _Z13cam_getTimingPtS_S_S_ PROC ; cam_getTiming(unsigned short*, unsigned short*, unsigned short*, unsigned short*)
;;;1854   
;;;1855   int32_t cam_getTiming(uint16_t *hblank, uint16_t *hactive, uint16_t *vblank, uint16_t *vactive)
000000  b5f0              PUSH     {r4-r7,lr}
;;;1856   {
000002  b089              SUB      sp,sp,#0x24
000004  4604              MOV      r4,r0
000006  460d              MOV      r5,r1
000008  4616              MOV      r6,r2
00000a  461f              MOV      r7,r3
;;;1857       int32_t responseInt = -1;
00000c  f04f30ff          MOV      r0,#0xffffffff
000010  9008              STR      r0,[sp,#0x20]
;;;1858       g_chirpM0->callSync(g_getTimingM0, END_OUT_ARGS, &responseInt, hblank, hactive, vblank, vactive, END_IN_ARGS);
000012  2000              MOVS     r0,#0
000014  e9cd7004          STRD     r7,r0,[sp,#0x10]
000018  9006              STR      r0,[sp,#0x18]
00001a  9603              STR      r6,[sp,#0xc]
00001c  a808              ADD      r0,sp,#0x20
00001e  e88d0031          STM      sp,{r0,r4,r5}
000022  480a              LDR      r0,|L19.76|
000024  2300              MOVS     r3,#0
000026  4619              MOV      r1,r3
000028  f9b02008          LDRSH    r2,[r0,#8]  ; g_getTimingM0
00002c  4808              LDR      r0,|L19.80|
00002e  6800              LDR      r0,[r0,#0]  ; g_chirpM0
000030  f7fffffe          BL       _ZN5Chirp4callEhsz ; Chirp::call(unsigned char, short, ...)
;;;1859       printf("timing: %d %d %d %d\n", *hblank, *hactive, *vblank, *vactive);
000034  8838              LDRH     r0,[r7,#0]
000036  9000              STR      r0,[sp,#0]
000038  8833              LDRH     r3,[r6,#0]
00003a  882a              LDRH     r2,[r5,#0]
00003c  8821              LDRH     r1,[r4,#0]
00003e  a005              ADR      r0,|L19.84|
000040  f7fffffe          BL       lpc_printf
;;;1860   
;;;1861       return responseInt;
000044  9808              LDR      r0,[sp,#0x20]
;;;1862   }
000046  b009              ADD      sp,sp,#0x24
000048  bdf0              POP      {r4-r7,pc}
;;;1863   
                          ENDP

00004a  0000              DCW      0x0000
                  |L19.76|
                          DCD      ||.data||
                  |L19.80|
                          DCD      g_chirpM0
                  |L19.84|
000054  74696d69          DCB      "timing: %d %d %d %d\n",0
000058  6e673a20
00005c  25642025
000060  64202564
000064  2025640a
000068  00      
000069  00                DCB      0
00006a  00                DCB      0
00006b  00                DCB      0

                          AREA ||i._Z13cam_sendFrameP5Chirptthj||, CODE, READONLY, ALIGN=2

                  _Z13cam_sendFrameP5Chirptthj PROC ; cam_sendFrame(Chirp*, unsigned short, unsigned short, unsigned char, unsigned)
;;;2008   
;;;2009   uint8_t *cam_sendFrame(Chirp *chirp, uint16_t xWidth, uint16_t yWidth, uint8_t renderFlags, uint32_t fourcc)
000000  e92d41f0          PUSH     {r4-r8,lr}
;;;2010   {
000004  b08a              SUB      sp,sp,#0x28
000006  4606              MOV      r6,r0
000008  9f10              LDR      r7,[sp,#0x40]
;;;2011       int32_t len;
;;;2012   
;;;2013       uint8_t *frame = (uint8_t *)SRAM1_LOC + CAM_PREBUF_LEN - CAM_FRAME_HEADER_LEN;
00000a  4d14              LDR      r5,|L20.92|
;;;2014       // fill buffer contents manually for return data 
;;;2015       len = Chirp::serialize(chirp, frame, SRAM1_SIZE, HTYPE(fourcc), HINT8(renderFlags), UINT16(xWidth), UINT16(yWidth), UINTS8_NO_COPY(xWidth*yWidth), END);
00000c  fb01f002          MUL      r0,r1,r2
000010  f04f0c00          MOV      r12,#0
000014  e9cd0c08          STRD     r0,r12,[sp,#0x20]
000018  4604              MOV      r4,r0
00001a  f04f08b1          MOV      r8,#0xb1
00001e  2002              MOVS     r0,#2
000020  e9cd2806          STRD     r2,r8,[sp,#0x18]
000024  e9cd3002          STRD     r3,r0,[sp,#8]
000028  e9cd1004          STRD     r1,r0,[sp,#0x10]
00002c  2041              MOVS     r0,#0x41
00002e  e9cd7000          STRD     r7,r0,[sp,#0]
000032  2364              MOVS     r3,#0x64
000034  f44f3290          MOV      r2,#0x12000
000038  4629              MOV      r1,r5
00003a  4630              MOV      r0,r6
00003c  f7fffffe          BL       _ZN5Chirp9serializeEPS_Phjz ; Chirp::serialize(Chirp*, unsigned char*, unsigned, ...)
;;;2016       if (len!=CAM_FRAME_HEADER_LEN)
000040  2824              CMP      r0,#0x24
000042  d003              BEQ      |L20.76|
;;;2017           return NULL;
000044  2000              MOVS     r0,#0
                  |L20.70|
;;;2018       
;;;2019       // tell chirp to use this buffer
;;;2020       chirp->useBuffer(frame, CAM_FRAME_HEADER_LEN+xWidth*yWidth); 
;;;2021   
;;;2022       return frame;
;;;2023   }
000046  b00a              ADD      sp,sp,#0x28
000048  e8bd81f0          POP      {r4-r8,pc}
                  |L20.76|
00004c  f1040224          ADD      r2,r4,#0x24           ;2020
000050  4629              MOV      r1,r5                 ;2020
000052  4630              MOV      r0,r6                 ;2020
000054  f7fffffe          BL       _ZN5Chirp9useBufferEPhj ; Chirp::useBuffer(unsigned char*, unsigned)
000058  4628              MOV      r0,r5                 ;2022
00005a  e7f4              B        |L20.70|
;;;2024   
                          ENDP

                  |L20.92|
                          DCD      0x1008001c

                          AREA ||i._Z14cam_applyPatchv||, CODE, READONLY, ALIGN=2

                  _Z14cam_applyPatchv PROC ; cam_applyPatch()
;;;1525   
;;;1526   int cam_applyPatch()
000000  b510              PUSH     {r4,lr}
;;;1527   {
;;;1528       uint16_t success;
;;;1529   
;;;1530       g_sccb->Write16(0x0080, 0x8001);
000002  4c0e              LDR      r4,|L21.60|
000004  f2480201          MOV      r2,#0x8001
000008  2180              MOVS     r1,#0x80
00000a  68e0              LDR      r0,[r4,#0xc]  ; g_sccb
00000c  f7fffffe          BL       _ZN5CSccb7Write16Ett ; CSccb::Write16(unsigned short, unsigned short)
                  |L21.16|
;;;1531       while(g_sccb->Read16(0x0080)&0x01);
000010  2180              MOVS     r1,#0x80
000012  68e0              LDR      r0,[r4,#0xc]  ; g_sccb
000014  f7fffffe          BL       _ZN5CSccb6Read16Et ; CSccb::Read16(unsigned short)
000018  07c0              LSLS     r0,r0,#31
00001a  d1f9              BNE      |L21.16|
;;;1532       delayus(1000);
00001c  f44f707a          MOV      r0,#0x3e8
000020  f7fffffe          BL       delayus
;;;1533       success = g_sccb->Read16(0x0080);
000024  2180              MOVS     r1,#0x80
000026  68e0              LDR      r0,[r4,#0xc]  ; g_sccb
000028  f7fffffe          BL       _ZN5CSccb6Read16Et ; CSccb::Read16(unsigned short)
;;;1534       if ((success&0x8000)==0)
00002c  0400              LSLS     r0,r0,#16
00002e  d402              BMI      |L21.54|
;;;1535           return -1;
000030  f04f30ff          MOV      r0,#0xffffffff
;;;1536   
;;;1537       return 0;       
;;;1538   }
000034  bd10              POP      {r4,pc}
                  |L21.54|
000036  2000              MOVS     r0,#0                 ;1537
000038  bd10              POP      {r4,pc}
;;;1539    
                          ENDP

00003a  0000              DCW      0x0000
                  |L21.60|
                          DCD      ||.data||

                          AREA ||i._Z14cam_loadParamsv||, CODE, READONLY, ALIGN=2

                  _Z14cam_loadParamsv PROC ; cam_loadParams()
;;;2114   
;;;2115   void cam_loadParams()
000000  e92d47f0          PUSH     {r4-r10,lr}
;;;2116   {
000004  b08c              SUB      sp,sp,#0x30
;;;2117       int8_t progVideo = exec_getProgIndex("video");
000006  2100              MOVS     r1,#0
000008  a073              ADR      r0,|L22.472|
00000a  f7fffffe          BL       _Z17exec_getProgIndexPKcP5Chirp ; exec_getProgIndex(const char*, Chirp*)
00000e  b246              SXTB     r6,r0
;;;2118   
;;;2119       prm_add("Camera brightness", PRM_FLAG_SLIDER, PRM_PRIORITY_5-10, 
000010  2032              MOVS     r0,#0x32
000012  2501              MOVS     r5,#1
000014  e9cd5000          STRD     r5,r0,[sp,#0]
000018  2400              MOVS     r4,#0
00001a  f44f7a80          MOV      r10,#0x100
00001e  4b70              LDR      r3,|L22.480|
000020  f241327e          MOV      r2,#0x137e
000024  4651              MOV      r1,r10
000026  9402              STR      r4,[sp,#8]
000028  a06e              ADR      r0,|L22.484|
00002a  f7fffffe          BL       _Z7prm_addPKcjjS0_z ; prm_add(const char*, unsigned, unsigned, const char*, ...)
;;;2120           "@c Tuning @m 0 @M 255 Sets the average brightness of the camera, can be between 0 and 255 (default " STRINGIFY(CAM_BRIGHTNESS_DEFAULT) ")", UINT8(CAM_BRIGHTNESS_DEFAULT), END);
;;;2121       prm_setShadowCallback("Camera brightness", (ShadowCallback)cam_shadowCallback);
00002e  4972              LDR      r1,|L22.504|
000030  a06c              ADR      r0,|L22.484|
000032  f7fffffe          BL       _Z21prm_setShadowCallbackPKcPFvS0_PKvE ; prm_setShadowCallback(const char*, void(*)(const char*, const void*))
;;;2122   
;;;2123       prm_add("Auto Exposure Correction", PRM_FLAG_ADVANCED | PRM_FLAG_CHECKBOX, PRM_PRIORITY_1, 
000036  9500              STR      r5,[sp,#0]
000038  e9cd5401          STRD     r5,r4,[sp,#4]
00003c  f44f777a          MOV      r7,#0x3e8
000040  f2402902          MOV      r9,#0x202
000044  4b6d              LDR      r3,|L22.508|
000046  463a              MOV      r2,r7
000048  4649              MOV      r1,r9
00004a  a06d              ADR      r0,|L22.512|
00004c  f7fffffe          BL       _Z7prm_addPKcjjS0_z ; prm_add(const char*, unsigned, unsigned, const char*, ...)
;;;2124           "@c Camera Enables/disables Auto Exposure Correction. (default enabled)", UINT8(1), END);
;;;2125       prm_setShadowCallback("Auto Exposure Correction", (ShadowCallback)cam_shadowCallback);
000050  4969              LDR      r1,|L22.504|
000052  a06b              ADR      r0,|L22.512|
000054  f7fffffe          BL       _Z21prm_setShadowCallbackPKcPFvS0_PKvE ; prm_setShadowCallback(const char*, void(*)(const char*, const void*))
;;;2126   
;;;2127       prm_add("AEC Value", PRM_FLAG_INTERNAL, PRM_PRIORITY_1,
000058  f04f0804          MOV      r8,#4
00005c  e9cd8400          STRD     r8,r4,[sp,#0]
000060  a36d              ADR      r3,|L22.536|
000062  463a              MOV      r2,r7
000064  2101              MOVS     r1,#1
000066  a06d              ADR      r0,|L22.540|
000068  9402              STR      r4,[sp,#8]
00006a  f7fffffe          BL       _Z7prm_addPKcjjS0_z ; prm_add(const char*, unsigned, unsigned, const char*, ...)
;;;2128           "", UINT32(0), END);
;;;2129   
;;;2130       if (progVideo>=0)
00006e  2e00              CMP      r6,#0
000070  db15              BLT      |L22.158|
;;;2131       {
;;;2132           prm_add("Color saturation", PROG_FLAGS(progVideo) | PRM_FLAG_ADVANCED | PRM_FLAG_SLIDER, PRM_PRIORITY_5,  
000072  2082              MOVS     r0,#0x82
000074  e9cd5000          STRD     r5,r0,[sp,#0]
000078  3619              ADDS     r6,r6,#0x19
00007a  fa05f106          LSL      r1,r5,r6
00007e  f04f407e          MOV      r0,#0xfe000000
000082  4388              BICS     r0,r0,r1
000084  f4407181          ORR      r1,r0,#0x102
000088  9402              STR      r4,[sp,#8]
00008a  4b67              LDR      r3,|L22.552|
00008c  f2413288          MOV      r2,#0x1388
000090  a066              ADR      r0,|L22.556|
000092  f7fffffe          BL       _Z7prm_addPKcjjS0_z ; prm_add(const char*, unsigned, unsigned, const char*, ...)
;;;2133               "@c Tuning @m 0 @M 255 Sets the color saturation, can be between 0 and 255 (default " STRINGIFY(CAM_SATURATION_DEFAULT+40) ")", UINT8(CAM_SATURATION_DEFAULT+40), END);
;;;2134           prm_setShadowCallback("Color saturation", (ShadowCallback)cam_shadowCallback);
000096  4958              LDR      r1,|L22.504|
000098  a064              ADR      r0,|L22.556|
00009a  f7fffffe          BL       _Z21prm_setShadowCallbackPKcPFvS0_PKvE ; prm_setShadowCallback(const char*, void(*)(const char*, const void*))
                  |L22.158|
;;;2135       }
;;;2136                                                                              
;;;2137       prm_add("Auto White Balance", PRM_FLAG_ADVANCED | PRM_FLAG_CHECKBOX, PRM_PRIORITY_1, 
00009e  e9cd5400          STRD     r5,r4,[sp,#0]
0000a2  4b67              LDR      r3,|L22.576|
0000a4  463a              MOV      r2,r7
0000a6  4649              MOV      r1,r9
0000a8  a066              ADR      r0,|L22.580|
0000aa  9402              STR      r4,[sp,#8]
0000ac  f7fffffe          BL       _Z7prm_addPKcjjS0_z ; prm_add(const char*, unsigned, unsigned, const char*, ...)
;;;2138           "@c Camera Enables/disables Auto White Balance. When this is set, AWB is enabled continuously. (default disabled)", UINT8(0), END);
;;;2139       prm_setShadowCallback("Auto White Balance", (ShadowCallback)cam_shadowCallback);
0000b0  4951              LDR      r1,|L22.504|
0000b2  a064              ADR      r0,|L22.580|
0000b4  f7fffffe          BL       _Z21prm_setShadowCallbackPKcPFvS0_PKvE ; prm_setShadowCallback(const char*, void(*)(const char*, const void*))
;;;2140   
;;;2141       prm_add("Auto White Balance on power-up", PRM_FLAG_ADVANCED | PRM_FLAG_CHECKBOX, PRM_PRIORITY_1,
0000b8  9500              STR      r5,[sp,#0]
0000ba  e9cd5401          STRD     r5,r4,[sp,#4]
0000be  4b66              LDR      r3,|L22.600|
0000c0  463a              MOV      r2,r7
0000c2  4649              MOV      r1,r9
0000c4  a065              ADR      r0,|L22.604|
0000c6  f7fffffe          BL       _Z7prm_addPKcjjS0_z ; prm_add(const char*, unsigned, unsigned, const char*, ...)
;;;2142           "@c Camera Enables/disables Auto White Balance on power-up. When this is set, AWB is enabled only upon power-up. (default enabled)", UINT8(1), END);
;;;2143       prm_setShadowCallback("Auto White Balance on power-up", (ShadowCallback)cam_shadowCallback);
0000ca  494b              LDR      r1,|L22.504|
0000cc  a063              ADR      r0,|L22.604|
0000ce  f7fffffe          BL       _Z21prm_setShadowCallbackPKcPFvS0_PKvE ; prm_setShadowCallback(const char*, void(*)(const char*, const void*))
;;;2144   
;;;2145       prm_add("Flicker avoidance", PRM_FLAG_ADVANCED | PRM_FLAG_CHECKBOX, PRM_PRIORITY_1,
0000d2  e9cd5400          STRD     r5,r4,[sp,#0]
0000d6  4b69              LDR      r3,|L22.636|
0000d8  463a              MOV      r2,r7
0000da  4649              MOV      r1,r9
0000dc  a068              ADR      r0,|L22.640|
0000de  9402              STR      r4,[sp,#8]
0000e0  f7fffffe          BL       _Z7prm_addPKcjjS0_z ; prm_add(const char*, unsigned, unsigned, const char*, ...)
;;;2146           "@c Camera Enables/disables flicker avoidance with indoor lighting that flickers at 50 or 60Hz.  Note, may cause overexposure in outdoor setting when enabled (default disabled)", UINT8(0), END);
;;;2147       prm_setShadowCallback("Flicker avoidance", (ShadowCallback)cam_shadowCallback);
0000e4  4944              LDR      r1,|L22.504|
0000e6  a066              ADR      r0,|L22.640|
0000e8  f7fffffe          BL       _Z21prm_setShadowCallbackPKcPFvS0_PKvE ; prm_setShadowCallback(const char*, void(*)(const char*, const void*))
;;;2148   
;;;2149       prm_add("AWB Value", PRM_FLAG_INTERNAL, PRM_PRIORITY_DEFAULT,
0000ec  e9cd8400          STRD     r8,r4,[sp,#0]
0000f0  a349              ADR      r3,|L22.536|
0000f2  2200              MOVS     r2,#0
0000f4  2101              MOVS     r1,#1
0000f6  a067              ADR      r0,|L22.660|
0000f8  9402              STR      r4,[sp,#8]
0000fa  f7fffffe          BL       _Z7prm_addPKcjjS0_z ; prm_add(const char*, unsigned, unsigned, const char*, ...)
;;;2150           "", UINT32(0), END);
;;;2151   
;;;2152       prm_add("Min frames per second", PRM_FLAG_SLIDER, PRM_PRIORITY_1, 
0000fe  203d              MOVS     r0,#0x3d
000100  e9cd5000          STRD     r5,r0,[sp,#0]
000104  4b66              LDR      r3,|L22.672|
000106  463a              MOV      r2,r7
000108  4651              MOV      r1,r10
00010a  9402              STR      r4,[sp,#8]
00010c  a065              ADR      r0,|L22.676|
00010e  f7fffffe          BL       _Z7prm_addPKcjjS0_z ; prm_add(const char*, unsigned, unsigned, const char*, ...)
;;;2153           "@c Camera @m 2 @M 61 Sets the minimum frames per second (framerate).  Note, adjusting this value lower will allow Pixy to capture frames with less noise and in less light. (default " STRINGIFY(CAM_FRAMERATE_DEFAULT) ")", UINT8(CAM_FRAMERATE_DEFAULT), END);
;;;2154       prm_setShadowCallback("Min frames per second", (ShadowCallback)cam_shadowCallback);
000112  4939              LDR      r1,|L22.504|
000114  a063              ADR      r0,|L22.676|
000116  f7fffffe          BL       _Z21prm_setShadowCallbackPKcPFvS0_PKvE ; prm_setShadowCallback(const char*, void(*)(const char*, const void*))
;;;2155       
;;;2156       uint8_t brightness, aec, awb, awbp, fa, fps;
;;;2157       uint32_t ecv, wbv;
;;;2158       prm_get("Camera brightness", &brightness, END);
00011a  2200              MOVS     r2,#0
00011c  a90b              ADD      r1,sp,#0x2c
00011e  a031              ADR      r0,|L22.484|
000120  f7fffffe          BL       _Z7prm_getPKcz ; prm_get(const char*, ...)
;;;2159       prm_get("Auto Exposure Correction", &aec, END);
000124  2200              MOVS     r2,#0
000126  a90a              ADD      r1,sp,#0x28
000128  a035              ADR      r0,|L22.512|
00012a  f7fffffe          BL       _Z7prm_getPKcz ; prm_get(const char*, ...)
;;;2160       prm_get("Auto White Balance", &awb, END);
00012e  2200              MOVS     r2,#0
000130  a909              ADD      r1,sp,#0x24
000132  a044              ADR      r0,|L22.580|
000134  f7fffffe          BL       _Z7prm_getPKcz ; prm_get(const char*, ...)
;;;2161       prm_get("Auto White Balance on power-up", &awbp, END);
000138  2200              MOVS     r2,#0
00013a  a908              ADD      r1,sp,#0x20
00013c  a047              ADR      r0,|L22.604|
00013e  f7fffffe          BL       _Z7prm_getPKcz ; prm_get(const char*, ...)
;;;2162       prm_get("Flicker avoidance", &fa);
000142  a907              ADD      r1,sp,#0x1c
000144  a04e              ADR      r0,|L22.640|
000146  f7fffffe          BL       _Z7prm_getPKcz ; prm_get(const char*, ...)
;;;2163       prm_get("Min frames per second", &fps);
00014a  a906              ADD      r1,sp,#0x18
00014c  a055              ADR      r0,|L22.676|
00014e  f7fffffe          BL       _Z7prm_getPKcz ; prm_get(const char*, ...)
;;;2164       
;;;2165       cam_setBrightness(brightness); 
000152  a80b              ADD      r0,sp,#0x2c
000154  f7fffffe          BL       _Z17cam_setBrightnessRKh ; cam_setBrightness(const unsigned char&)
;;;2166       cam_setFlickerAvoidance(fa);
000158  a807              ADD      r0,sp,#0x1c
00015a  f7fffffe          BL       _Z23cam_setFlickerAvoidanceRKh ; cam_setFlickerAvoidance(const unsigned char&)
;;;2167       cam_setFramerate(fps);
00015e  a806              ADD      r0,sp,#0x18
000160  f7fffffe          BL       _Z16cam_setFramerateRKh ; cam_setFramerate(const unsigned char&)
;;;2168       
;;;2169       delayus(50000); // wait a few frames 
000164  f24c3050          MOV      r0,#0xc350
000168  f7fffffe          BL       delayus
;;;2170       cam_setAEC(aec);
00016c  a80a              ADD      r0,sp,#0x28
00016e  f7fffffe          BL       _Z10cam_setAECRKh ; cam_setAEC(const unsigned char&)
;;;2171       if (!aec)
000172  f89d0028          LDRB     r0,[sp,#0x28]
;;;2172       {
;;;2173           if (g_aecValue) // save queried ECV 
000176  4d51              LDR      r5,|L22.700|
000178  b980              CBNZ     r0,|L22.412|
00017a  692a              LDR      r2,[r5,#0x10]  ; g_aecValue
00017c  b132              CBZ      r2,|L22.396|
;;;2174           {
;;;2175               prm_set("AEC Value", UINT32(g_aecValue), END);
00017e  2300              MOVS     r3,#0
000180  2104              MOVS     r1,#4
000182  a026              ADR      r0,|L22.540|
000184  f7fffffe          BL       _Z7prm_setPKcz ; prm_set(const char*, ...)
;;;2176               g_aecValue = 0;
000188  612c              STR      r4,[r5,#0x10]  ; g_aecValue
00018a  e007              B        |L22.412|
                  |L22.396|
;;;2177           }
;;;2178           else
;;;2179           {
;;;2180               prm_get("AEC Value", &ecv, END); // grab saved ECV and set it
00018c  2200              MOVS     r2,#0
00018e  a905              ADD      r1,sp,#0x14
000190  a022              ADR      r0,|L22.540|
000192  f7fffffe          BL       _Z7prm_getPKcz ; prm_get(const char*, ...)
;;;2181               cam_setECV(ecv);
000196  a805              ADD      r0,sp,#0x14
000198  f7fffffe          BL       _Z10cam_setECVRKj ; cam_setECV(const unsigned&)
                  |L22.412|
;;;2182           }
;;;2183       }
;;;2184       cam_setAWB(awb);
00019c  a809              ADD      r0,sp,#0x24
00019e  f7fffffe          BL       _Z10cam_setAWBRKh ; cam_setAWB(const unsigned char&)
;;;2185       if (!awb && !awbp)
0001a2  f89d0024          LDRB     r0,[sp,#0x24]
0001a6  f89d1020          LDRB     r1,[sp,#0x20]
0001aa  4308              ORRS     r0,r0,r1
0001ac  d107              BNE      |L22.446|
;;;2186       {
;;;2187           if (g_awbValue) // save queried ECV 
0001ae  696a              LDR      r2,[r5,#0x14]  ; g_awbValue
0001b0  b142              CBZ      r2,|L22.452|
;;;2188           {
;;;2189               prm_set("AWB Value", UINT32(g_awbValue), END);
0001b2  2300              MOVS     r3,#0
0001b4  2104              MOVS     r1,#4
0001b6  a037              ADR      r0,|L22.660|
0001b8  f7fffffe          BL       _Z7prm_setPKcz ; prm_set(const char*, ...)
;;;2190               g_awbValue = 0;
0001bc  616c              STR      r4,[r5,#0x14]  ; g_awbValue
                  |L22.446|
;;;2191           }
;;;2192           else
;;;2193           {
;;;2194               prm_get("AWB Value", &wbv, END); // grab saved WBV and set it
;;;2195               cam_setWBV(wbv);
;;;2196           }
;;;2197       }
;;;2198   
;;;2199   }
0001be  b00c              ADD      sp,sp,#0x30
0001c0  e8bd87f0          POP      {r4-r10,pc}
                  |L22.452|
0001c4  2200              MOVS     r2,#0                 ;2194
0001c6  a904              ADD      r1,sp,#0x10           ;2194
0001c8  a032              ADR      r0,|L22.660|
0001ca  f7fffffe          BL       _Z7prm_getPKcz ; prm_get(const char*, ...)
0001ce  a804              ADD      r0,sp,#0x10           ;2195
0001d0  f7fffffe          BL       _Z10cam_setWBVRKj ; cam_setWBV(const unsigned&)
0001d4  e7f3              B        |L22.446|
                          ENDP

0001d6  0000              DCW      0x0000
                  |L22.472|
0001d8  76696465          DCB      "video",0
0001dc  6f00    
0001de  00                DCB      0
0001df  00                DCB      0
                  |L22.480|
                          DCD      ||.conststring||+0xb28
                  |L22.484|
0001e4  43616d65          DCB      "Camera brightness",0
0001e8  72612062
0001ec  72696768
0001f0  746e6573
0001f4  7300    
0001f6  00                DCB      0
0001f7  00                DCB      0
                  |L22.504|
                          DCD      _Z18cam_shadowCallbackPKcRKh ; cam_shadowCallback(const char*, const unsigned char&)
                  |L22.508|
                          DCD      ||.conststring||+0xb90
                  |L22.512|
000200  4175746f          DCB      "Auto Exposure Correction"
000204  20457870
000208  6f737572
00020c  6520436f
000210  72726563
000214  74696f6e
                  |L22.536|
000218  00                DCB      0
000219  00                DCB      0
00021a  00                DCB      0
00021b  00                DCB      0
                  |L22.540|
00021c  41454320          DCB      "AEC Value",0
000220  56616c75
000224  6500    
000226  00                DCB      0
000227  00                DCB      0
                  |L22.552|
                          DCD      ||.conststring||+0xbd8
                  |L22.556|
00022c  436f6c6f          DCB      "Color saturation",0
000230  72207361
000234  74757261
000238  74696f6e
00023c  00      
00023d  00                DCB      0
00023e  00                DCB      0
00023f  00                DCB      0
                  |L22.576|
                          DCD      ||.conststring||+0xc34
                  |L22.580|
000244  4175746f          DCB      "Auto White Balance",0
000248  20576869
00024c  74652042
000250  616c616e
000254  636500  
000257  00                DCB      0
                  |L22.600|
                          DCD      ||.conststring||+0xca8
                  |L22.604|
00025c  4175746f          DCB      "Auto White Balance on power-up",0
000260  20576869
000264  74652042
000268  616c616e
00026c  6365206f
000270  6e20706f
000274  7765722d
000278  757000  
00027b  00                DCB      0
                  |L22.636|
                          DCD      ||.conststring||+0xd2c
                  |L22.640|
000280  466c6963          DCB      "Flicker avoidance",0
000284  6b657220
000288  61766f69
00028c  64616e63
000290  6500    
000292  00                DCB      0
000293  00                DCB      0
                  |L22.660|
000294  41574220          DCB      "AWB Value",0
000298  56616c75
00029c  6500    
00029e  00                DCB      0
00029f  00                DCB      0
                  |L22.672|
                          DCD      ||.conststring||+0xddc
                  |L22.676|
0002a4  4d696e20          DCB      "Min frames per second",0
0002a8  6672616d
0002ac  65732070
0002b0  65722073
0002b4  65636f6e
0002b8  6400    
0002ba  00                DCB      0
0002bb  00                DCB      0
                  |L22.700|
                          DCD      ||.data||

                          AREA ||i._Z15cam_runCommandsPK10CamCommand||, CODE, READONLY, ALIGN=2

                  _Z15cam_runCommandsPK10CamCommand PROC ; cam_runCommands(const CamCommand*)
;;;1540   
;;;1541   int cam_runCommands(const CamCommand *commands)
000000  b5fe              PUSH     {r1-r7,lr}
;;;1542   {
000002  4605              MOV      r5,r0
;;;1543       int i;
;;;1544   
;;;1545       for (i=0; commands[i].command!=CAM_END; i++)
000004  2400              MOVS     r4,#0
;;;1546       {
;;;1547           switch(commands[i].command)
;;;1548           {
;;;1549           case CAM_DELAY:
;;;1550               delayus(commands[i].reg);
;;;1551               break;
;;;1552   
;;;1553           case CAM_SEND_COMMAND:
;;;1554               cam_sendCommand();
;;;1555               break;
;;;1556   
;;;1557           case CAM_APPLY_PATCH:
;;;1558               cam_applyPatch();
;;;1559               break;
;;;1560   
;;;1561           case CAM_REG_WRITE8:
;;;1562               g_sccb->Write8(commands[i].reg, commands[i].val);
000006  4e21              LDR      r6,|L23.140|
000008  e03a              B        |L23.128|
                  |L23.10|
00000a  2808              CMP      r0,#8                 ;1547
00000c  d237              BCS      |L23.126|
00000e  e8dff000          TBB      [pc,r0]               ;1547
000012  3604              DCB      0x36,0x04
000014  0a0d1018          DCB      0x0a,0x0d,0x10,0x18
000018  2129              DCB      0x21,0x29
00001a  eb0500c4          ADD      r0,r5,r4,LSL #3       ;1550
00001e  8840              LDRH     r0,[r0,#2]            ;1550
000020  f7fffffe          BL       delayus
000024  e02b              B        |L23.126|
000026  f7fffffe          BL       _Z15cam_sendCommandv ; cam_sendCommand()
00002a  e028              B        |L23.126|
00002c  f7fffffe          BL       _Z14cam_applyPatchv ; cam_applyPatch()
000030  e025              B        |L23.126|
000032  eb0500c4          ADD      r0,r5,r4,LSL #3
000036  7902              LDRB     r2,[r0,#4]
000038  8841              LDRH     r1,[r0,#2]
00003a  68f0              LDR      r0,[r6,#0xc]  ; g_sccb
00003c  f7fffffe          BL       _ZN5CSccb6Write8Eth ; CSccb::Write8(unsigned short, unsigned char)
;;;1563   #ifdef VERIFY
;;;1564               if (g_sccb->Read8(commands[i].reg)!=commands[i].val)
;;;1565               {
;;;1566                   printf("error %x %x %x\n", commands[i].reg, commands[i].val, g_sccb->Read8(commands[i].reg));
;;;1567                   return -1;
;;;1568               }
;;;1569   #endif
;;;1570               break;
000040  e01d              B        |L23.126|
;;;1571   
;;;1572           case CAM_REG_WRITE16:
;;;1573               g_sccb->Write16(commands[i].reg, commands[i].val);
000042  eb0500c4          ADD      r0,r5,r4,LSL #3
000046  8881              LDRH     r1,[r0,#4]
000048  b28a              UXTH     r2,r1
00004a  8841              LDRH     r1,[r0,#2]
00004c  68f0              LDR      r0,[r6,#0xc]  ; g_sccb
00004e  f7fffffe          BL       _ZN5CSccb7Write16Ett ; CSccb::Write16(unsigned short, unsigned short)
;;;1574   #ifdef VERIFY
;;;1575               if (g_sccb->Read16(commands[i].reg)!=commands[i].val)
;;;1576               {
;;;1577                   printf("error %x %x %x\n", commands[i].reg, commands[i].val, g_sccb->Read16(commands[i].reg));
;;;1578                   return -1;
;;;1579               }
;;;1580   #endif
;;;1581               break;
000052  e014              B        |L23.126|
;;;1582   
;;;1583           case CAM_REG_WRITE32:
;;;1584               g_sccb->Write32(commands[i].reg, commands[i].val);
000054  eb0500c4          ADD      r0,r5,r4,LSL #3
000058  8841              LDRH     r1,[r0,#2]
00005a  6842              LDR      r2,[r0,#4]
00005c  68f0              LDR      r0,[r6,#0xc]  ; g_sccb
00005e  f7fffffe          BL       _ZN5CSccb7Write32Etj ; CSccb::Write32(unsigned short, unsigned)
;;;1585   #ifdef VERIFY
;;;1586               if (g_sccb->Read32(commands[i].reg)!=commands[i].val)
;;;1587               {
;;;1588                   printf("error %x %x %x\n", commands[i].reg, commands[i].val, g_sccb->Read32(commands[i].reg));
;;;1589                   return -1;
;;;1590               }
;;;1591   #endif
;;;1592               break;
000062  e00c              B        |L23.126|
;;;1593   
;;;1594           case CAM_SET_RESOLUTION:
;;;1595               cam_setResolution(0, 0, commands[i].reg, commands[i].val);
000064  2000              MOVS     r0,#0
000066  eb0502c4          ADD      r2,r5,r4,LSL #3
00006a  9002              STR      r0,[sp,#8]
00006c  9001              STR      r0,[sp,#4]
00006e  8890              LDRH     r0,[r2,#4]
000070  9000              STR      r0,[sp,#0]
000072  1c92              ADDS     r2,r2,#2
000074  466b              MOV      r3,sp
000076  a901              ADD      r1,sp,#4
000078  a802              ADD      r0,sp,#8
00007a  f7fffffe          BL       _Z17cam_setResolutionRKtS0_S0_S0_ ; cam_setResolution(const unsigned short&, const unsigned short&, const unsigned short&, const unsigned short&)
                  |L23.126|
00007e  1c64              ADDS     r4,r4,#1              ;1545
                  |L23.128|
000080  f8150034          LDRB     r0,[r5,r4,LSL #3]     ;1545
000084  2800              CMP      r0,#0                 ;1545
000086  d1c0              BNE      |L23.10|
;;;1596               break;
;;;1597           }
;;;1598       }
;;;1599   
;;;1600   
;;;1601       return 0;
;;;1602   }
000088  bdfe              POP      {r1-r7,pc}
;;;1603   
                          ENDP

00008a  0000              DCW      0x0000
                  |L23.140|
                          DCD      ||.data||

                          AREA ||i._Z15cam_sendCommandv||, CODE, READONLY, ALIGN=2

                  _Z15cam_sendCommandv PROC ; cam_sendCommand()
;;;1509   
;;;1510   int cam_sendCommand()
000000  b510              PUSH     {r4,lr}
;;;1511   {
;;;1512       uint16_t success;
;;;1513   
;;;1514       g_sccb->Write8(0xdc00, 0x28); 
000002  4c11              LDR      r4,|L24.72|
000004  2228              MOVS     r2,#0x28
000006  f44f415c          MOV      r1,#0xdc00
00000a  68e0              LDR      r0,[r4,#0xc]  ; g_sccb
00000c  f7fffffe          BL       _ZN5CSccb6Write8Eth ; CSccb::Write8(unsigned short, unsigned char)
;;;1515       g_sccb->Write16(0x0080, 0x8002);
000010  f2480202          MOV      r2,#0x8002
000014  2180              MOVS     r1,#0x80
000016  68e0              LDR      r0,[r4,#0xc]  ; g_sccb
000018  f7fffffe          BL       _ZN5CSccb7Write16Ett ; CSccb::Write16(unsigned short, unsigned short)
                  |L24.28|
;;;1516       while(g_sccb->Read16(0x0080)&0x02);
00001c  2180              MOVS     r1,#0x80
00001e  68e0              LDR      r0,[r4,#0xc]  ; g_sccb
000020  f7fffffe          BL       _ZN5CSccb6Read16Et ; CSccb::Read16(unsigned short)
000024  0780              LSLS     r0,r0,#30
000026  d4f9              BMI      |L24.28|
;;;1517       delayus(1000);
000028  f44f707a          MOV      r0,#0x3e8
00002c  f7fffffe          BL       delayus
;;;1518   
;;;1519       success = g_sccb->Read16(0x0080);
000030  2180              MOVS     r1,#0x80
000032  68e0              LDR      r0,[r4,#0xc]  ; g_sccb
000034  f7fffffe          BL       _ZN5CSccb6Read16Et ; CSccb::Read16(unsigned short)
;;;1520       if ((success&0x8000)==0)
000038  0400              LSLS     r0,r0,#16
00003a  d402              BMI      |L24.66|
;;;1521           return -1;
00003c  f04f30ff          MOV      r0,#0xffffffff
;;;1522   
;;;1523       return 0;       
;;;1524   }
000040  bd10              POP      {r4,pc}
                  |L24.66|
000042  2000              MOVS     r0,#0                 ;1523
000044  bd10              POP      {r4,pc}
;;;1525   
                          ENDP

000046  0000              DCW      0x0000
                  |L24.72|
                          DCD      ||.data||

                          AREA ||i._Z15cam_testPatternRKh||, CODE, READONLY, ALIGN=2

                  _Z15cam_testPatternRKh PROC ; cam_testPattern(const unsigned char&)
;;;1795   
;;;1796   int cam_testPattern(const uint8_t &enable)
000000  b510              PUSH     {r4,lr}
;;;1797   {
;;;1798       if (enable)
;;;1799       {
;;;1800           g_sccb->Write8(0xc84c, 2);
000002  4c0c              LDR      r4,|L25.52|
000004  7802              LDRB     r2,[r0,#0]            ;1798
000006  f64c014c          MOV      r1,#0xc84c
00000a  68e0              LDR      r0,[r4,#0xc]          ;1798
00000c  2a00              CMP      r2,#0                 ;1798
00000e  d009              BEQ      |L25.36|
000010  2202              MOVS     r2,#2
000012  f7fffffe          BL       _ZN5CSccb6Write8Eth ; CSccb::Write8(unsigned short, unsigned char)
;;;1801           g_sccb->Write8(0xc84d, 4);
000016  2204              MOVS     r2,#4
000018  f64c014d          MOV      r1,#0xc84d
00001c  68e0              LDR      r0,[r4,#0xc]  ; g_sccb
00001e  f7fffffe          BL       _ZN5CSccb6Write8Eth ; CSccb::Write8(unsigned short, unsigned char)
000022  e002              B        |L25.42|
                  |L25.36|
;;;1802       }
;;;1803       else
;;;1804           g_sccb->Write8(0xc84c, 0);
000024  2200              MOVS     r2,#0
000026  f7fffffe          BL       _ZN5CSccb6Write8Eth ; CSccb::Write8(unsigned short, unsigned char)
                  |L25.42|
;;;1805   
;;;1806       cam_sendCommand();
00002a  f7fffffe          BL       _Z15cam_sendCommandv ; cam_sendCommand()
;;;1807       return 0;
00002e  2000              MOVS     r0,#0
;;;1808   }
000030  bd10              POP      {r4,pc}
;;;1809   
                          ENDP

000032  0000              DCW      0x0000
                  |L25.52|
                          DCD      ||.data||

                          AREA ||i._Z16cam_getBlankTimev||, CODE, READONLY, ALIGN=2

                  _Z16cam_getBlankTimev PROC ; cam_getBlankTime()
;;;2080   
;;;2081   int32_t cam_getBlankTime()
000000  4801              LDR      r0,|L26.8|
;;;2082   {
;;;2083       return SM_OBJECT->blankTime;
000002  8800              LDRH     r0,[r0,#0]
;;;2084   }
000004  4770              BX       lr
;;;2085   
                          ENDP

000006  0000              DCW      0x0000
                  |L26.8|
                          DCD      0x2000fc06

                          AREA ||i._Z16cam_setFramerateRKh||, CODE, READONLY, ALIGN=2

                  _Z16cam_setFramerateRKh PROC ; cam_setFramerate(const unsigned char&)
;;;1863   
;;;1864   int32_t cam_setFramerate(const uint8_t &framerate)
000000  b570              PUSH     {r4-r6,lr}
;;;1865   {
;;;1866       uint16_t val = framerate*0x100;
000002  7800              LDRB     r0,[r0,#0]
000004  0204              LSLS     r4,r0,#8
;;;1867       g_sccb->Write16(0xC88C, val);       //cam_aet_max_frame_rate = 128*34000000/((46+height)*(542+width))
000006  4d0a              LDR      r5,|L27.48|
000008  4622              MOV      r2,r4
00000a  f64c018c          MOV      r1,#0xc88c
00000e  68e8              LDR      r0,[r5,#0xc]  ; g_sccb
000010  f7fffffe          BL       _ZN5CSccb7Write16Ett ; CSccb::Write16(unsigned short, unsigned short)
;;;1868       g_sccb->Write16(0xC88E, val);       //cam_aet_min_frame_rate = 128*34000000/((46+height)*(542+width))
000014  4622              MOV      r2,r4
000016  f64c018e          MOV      r1,#0xc88e
00001a  68e8              LDR      r0,[r5,#0xc]  ; g_sccb
00001c  f7fffffe          BL       _ZN5CSccb7Write16Ett ; CSccb::Write16(unsigned short, unsigned short)
;;;1869       cam_sendCommand();
000020  f7fffffe          BL       _Z15cam_sendCommandv ; cam_sendCommand()
;;;1870       // wait a bit because this takes some time to propagate through the imager
;;;1871       delayms(50);
000024  2032              MOVS     r0,#0x32
000026  f7fffffe          BL       delayms
;;;1872       return 0;
00002a  2000              MOVS     r0,#0
;;;1873   
;;;1874   }
00002c  bd70              POP      {r4-r6,pc}
;;;1875   
                          ENDP

00002e  0000              DCW      0x0000
                  |L27.48|
                          DCD      ||.data||

                          AREA ||i._Z17cam_getBrightnessv||, CODE, READONLY, ALIGN=2

                  _Z17cam_getBrightnessv PROC ; cam_getBrightness()
;;;1779   
;;;1780   uint32_t cam_getBrightness()
000000  4801              LDR      r0,|L28.8|
;;;1781   {
;;;1782       return g_brightness;
000002  78c0              LDRB     r0,[r0,#3]  ; g_brightness
;;;1783   }
000004  4770              BX       lr
;;;1784   
                          ENDP

000006  0000              DCW      0x0000
                  |L28.8|
                          DCD      ||.data||

                          AREA ||i._Z17cam_getFrameChirpRKhRKtS2_S2_S2_P5Chirp||, CODE, READONLY, ALIGN=1

                  _Z17cam_getFrameChirpRKhRKtS2_S2_S2_P5Chirp PROC ; cam_getFrameChirp(const unsigned char&, const unsigned short&, const unsigned short&, const unsigned short&, const unsigned short&, Chirp*)
;;;1976   
;;;1977   int32_t cam_getFrameChirp(const uint8_t &type, const uint16_t &xOffset, const uint16_t &yOffset, const uint16_t &xWidth, const uint16_t &yWidth, Chirp *chirp)
000000  b57f              PUSH     {r0-r6,lr}
;;;1978   {
000002  e9dd6508          LDRD     r6,r5,[sp,#0x20]
;;;1979       return cam_getFrameChirpFlags(type, xOffset, yOffset, xWidth, yWidth, chirp, RENDER_FLAG_FLUSH, true);
000006  2401              MOVS     r4,#1
000008  e9cd5401          STRD     r5,r4,[sp,#4]
00000c  9600              STR      r6,[sp,#0]
00000e  9403              STR      r4,[sp,#0xc]
000010  f7fffffe          BL       _Z22cam_getFrameChirpFlagsRKhRKtS2_S2_S2_P5Chirphb ; cam_getFrameChirpFlags(const unsigned char&, const unsigned short&, const unsigned short&, const unsigned short&, const unsigned short&, Chirp*, unsigned char, bool)
;;;1980   }
000014  b004              ADD      sp,sp,#0x10
000016  bd70              POP      {r4-r6,pc}
;;;1981   
                          ENDP


                          AREA ||i._Z17cam_getSaturationv||, CODE, READONLY, ALIGN=2

                  _Z17cam_getSaturationv PROC ; cam_getSaturation()
;;;1774   
;;;1775   uint32_t cam_getSaturation()
000000  4801              LDR      r0,|L30.8|
;;;1776   {
;;;1777       return g_saturation;
000002  7900              LDRB     r0,[r0,#4]  ; g_saturation
;;;1778   }
000004  4770              BX       lr
;;;1779   
                          ENDP

000006  0000              DCW      0x0000
                  |L30.8|
                          DCD      ||.data||

                          AREA ||i._Z17cam_setBrightnessRKh||, CODE, READONLY, ALIGN=2

                  _Z17cam_setBrightnessRKh PROC ; cam_setBrightness(const unsigned char&)
;;;1746   
;;;1747   int32_t cam_setBrightness(const uint8_t &brightness)
000000  b570              PUSH     {r4-r6,lr}
;;;1748   {
000002  4604              MOV      r4,r0
;;;1749       uint16_t b;
;;;1750   
;;;1751   #if 0
;;;1752       if (g_mode==1)
;;;1753           b = (uint16_t)(brightness*CAM_BRIGHTNESS_SCALE);
;;;1754       else
;;;1755   #endif
;;;1756           b = brightness;
000004  7822              LDRB     r2,[r4,#0]
;;;1757   
;;;1758       if (b>0xff)
000006  2aff              CMP      r2,#0xff
000008  d900              BLS      |L31.12|
;;;1759           b = 0xff;
00000a  22ff              MOVS     r2,#0xff
                  |L31.12|
;;;1760   
;;;1761       g_sccb->Write16(0xcc0a, b);
00000c  4d04              LDR      r5,|L31.32|
00000e  f64c410a          MOV      r1,#0xcc0a
000012  68e8              LDR      r0,[r5,#0xc]  ; g_sccb
000014  f7fffffe          BL       _ZN5CSccb7Write16Ett ; CSccb::Write16(unsigned short, unsigned short)
;;;1762       g_brightness = brightness;
000018  7820              LDRB     r0,[r4,#0]
00001a  70e8              STRB     r0,[r5,#3]
;;;1763   
;;;1764       return 0;
00001c  2000              MOVS     r0,#0
;;;1765   }
00001e  bd70              POP      {r4-r6,pc}
;;;1766   
                          ENDP

                  |L31.32|
                          DCD      ||.data||

                          AREA ||i._Z17cam_setResolutionRKtS0_S0_S0_||, CODE, READONLY, ALIGN=2

                  _Z17cam_setResolutionRKtS0_S0_S0_ PROC ; cam_setResolution(const unsigned short&, const unsigned short&, const unsigned short&, const unsigned short&)
;;;1876   
;;;1877   int32_t cam_setResolution(const uint16_t &xoffset, const uint16_t &yoffset, const uint16_t &width, const uint16_t &height)
000000  e92d41f0          PUSH     {r4-r8,lr}
;;;1878   {
000004  4611              MOV      r1,r2
;;;1879   #if 1
;;;1880       uint16_t xoffset2 = (xoffset&~0x03)*2;
000006  8800              LDRH     r0,[r0,#0]
000008  f0200203          BIC      r2,r0,#3
00000c  f64f70ff          MOV      r0,#0xffff
000010  ea000742          AND      r7,r0,r2,LSL #1
;;;1881       uint16_t yoffset2 = 0; //yoffset*2 + CAM_LINE_SKIP;
000014  2200              MOVS     r2,#0
;;;1882       uint16_t width2 = (width + CAM_PIXEL_SKIP)*2;
000016  8809              LDRH     r1,[r1,#0]
000018  3108              ADDS     r1,r1,#8
00001a  ea000541          AND      r5,r0,r1,LSL #1
;;;1883       uint16_t height2 = (height+1)*2;
00001e  8819              LDRH     r1,[r3,#0]
000020  1c49              ADDS     r1,r1,#1
000022  ea000641          AND      r6,r0,r1,LSL #1
;;;1884   
;;;1885       float frate = (float)17000000.0/((46+(float)height2)*(542+(float)width2))*512 + (float)0.5;
000026  ee006a10          VMOV     s0,r6
00002a  eeb80a40          VCVT.F32.U32 s0,s0
00002e  eddf0a80          VLDR     s1,|L32.560|
000032  ee700a20          VADD.F32 s1,s0,s1
000036  ee005a10          VMOV     s0,r5
00003a  eeb80a40          VCVT.F32.U32 s0,s0
00003e  ed9f1a7d          VLDR     s2,|L32.564|
000042  ee300a01          VADD.F32 s0,s0,s2
000046  ee200a80          VMUL.F32 s0,s1,s0
00004a  ed9f1a7b          VLDR     s2,|L32.568|
00004e  eec10a00          VDIV.F32 s1,s2,s0
000052  ed9f1a7a          VLDR     s2,|L32.572|
000056  eeb60a00          VMOV.F32 s0,#0.50000000
00005a  ee000a81          VMLA.F32 s0,s1,s2
;;;1886       uint16_t rate = (uint16_t)frate;
00005e  eebc0ac0          VCVT.U32.F32 s0,s0
000062  ee100a10          VMOV     r0,s0
000066  fa1ff880          UXTH     r8,r0
;;;1887   
;;;1888       g_sccb->Write16(0xC800, yoffset2);      //cam_sensor_cfg_y_addr_start = yoffset
00006a  4c75              LDR      r4,|L32.576|
00006c  f44f4148          MOV      r1,#0xc800
000070  68e0              LDR      r0,[r4,#0xc]  ; g_sccb
000072  f7fffffe          BL       _ZN5CSccb7Write16Ett ; CSccb::Write16(unsigned short, unsigned short)
;;;1889       g_sccb->Write16(0xC802, xoffset2);      //cam_sensor_cfg_x_addr_start = xoffset
000076  463a              MOV      r2,r7
000078  f64c0102          MOV      r1,#0xc802
00007c  68e0              LDR      r0,[r4,#0xc]  ; g_sccb
00007e  f7fffffe          BL       _ZN5CSccb7Write16Ett ; CSccb::Write16(unsigned short, unsigned short)
;;;1890       g_sccb->Write16(0xC804, 493+height2);   //cam_sensor_cfg_y_addr_end = 493+height
000082  f20610ed          ADD      r0,r6,#0x1ed
000086  b282              UXTH     r2,r0
000088  f64c0104          MOV      r1,#0xc804
00008c  68e0              LDR      r0,[r4,#0xc]  ; g_sccb
00008e  f7fffffe          BL       _ZN5CSccb7Write16Ett ; CSccb::Write16(unsigned short, unsigned short)
;;;1891       g_sccb->Write16(0xC806, 653+width2);        //cam_sensor_cfg_x_addr_end = 653+width
000092  f205208d          ADD      r0,r5,#0x28d
000096  b282              UXTH     r2,r0
000098  f64c0106          MOV      r1,#0xc806
00009c  68e0              LDR      r0,[r4,#0xc]  ; g_sccb
00009e  f7fffffe          BL       _ZN5CSccb7Write16Ett ; CSccb::Write16(unsigned short, unsigned short)
;;;1892   
;;;1893       g_sccb->Write32(0xC808, 0x206CC80);     //cam_sensor_cfg_pixclk = 34000000
0000a2  4a68              LDR      r2,|L32.580|
0000a4  f64c0108          MOV      r1,#0xc808
0000a8  68e0              LDR      r0,[r4,#0xc]  ; g_sccb
0000aa  f7fffffe          BL       _ZN5CSccb7Write32Etj ; CSccb::Write32(unsigned short, unsigned)
;;;1894       g_sccb->Write16(0xC80C, 0x0001);        //cam_sensor_cfg_row_speed = 1
0000ae  2201              MOVS     r2,#1
0000b0  f64c010c          MOV      r1,#0xc80c
0000b4  68e0              LDR      r0,[r4,#0xc]  ; g_sccb
0000b6  f7fffffe          BL       _ZN5CSccb7Write16Ett ; CSccb::Write16(unsigned short, unsigned short)
;;;1895       g_sccb->Write16(0xC80E, 0x01C3);        //cam_sensor_cfg_fine_integ_time_min = 451
0000ba  f24012c3          MOV      r2,#0x1c3
0000be  f64c010e          MOV      r1,#0xc80e
0000c2  68e0              LDR      r0,[r4,#0xc]  ; g_sccb
0000c4  f7fffffe          BL       _ZN5CSccb7Write16Ett ; CSccb::Write16(unsigned short, unsigned short)
;;;1896   
;;;1897       g_sccb->Write16(0xC810, 307+width2);        //cam_sensor_cfg_fine_integ_time_max = 307+width
0000c8  f2051033          ADD      r0,r5,#0x133
0000cc  b282              UXTH     r2,r0
0000ce  f64c0110          MOV      r1,#0xc810
0000d2  68e0              LDR      r0,[r4,#0xc]  ; g_sccb
0000d4  f7fffffe          BL       _ZN5CSccb7Write16Ett ; CSccb::Write16(unsigned short, unsigned short)
;;;1898       g_sccb->Write16(0xC812, 46+height2);        //cam_sensor_cfg_frame_length_lines = 46+height
0000d8  f106002e          ADD      r0,r6,#0x2e
0000dc  b282              UXTH     r2,r0
0000de  f64c0112          MOV      r1,#0xc812
0000e2  68e0              LDR      r0,[r4,#0xc]  ; g_sccb
0000e4  f7fffffe          BL       _ZN5CSccb7Write16Ett ; CSccb::Write16(unsigned short, unsigned short)
;;;1899       g_sccb->Write16(0xC814, 542+width2);        //cam_sensor_cfg_line_length_pck = 542+width
0000e8  f205201e          ADD      r0,r5,#0x21e
0000ec  b282              UXTH     r2,r0
0000ee  f64c0114          MOV      r1,#0xc814
0000f2  68e0              LDR      r0,[r4,#0xc]  ; g_sccb
0000f4  f7fffffe          BL       _ZN5CSccb7Write16Ett ; CSccb::Write16(unsigned short, unsigned short)
;;;1900   
;;;1901       g_sccb->Write16(0xC816, 0x00E0);        //cam_sensor_cfg_fine_correction = 224
0000f8  22e0              MOVS     r2,#0xe0
0000fa  f64c0116          MOV      r1,#0xc816
0000fe  68e0              LDR      r0,[r4,#0xc]  ; g_sccb
000100  f7fffffe          BL       _ZN5CSccb7Write16Ett ; CSccb::Write16(unsigned short, unsigned short)
;;;1902   
;;;1903       g_sccb->Write16(0xC818, 3+height2);     //cam_sensor_cfg_cpipe_last_row = 3+height
000104  1cf0              ADDS     r0,r6,#3
000106  b282              UXTH     r2,r0
000108  f64c0118          MOV      r1,#0xc818
00010c  68e0              LDR      r0,[r4,#0xc]  ; g_sccb
00010e  f7fffffe          BL       _ZN5CSccb7Write16Ett ; CSccb::Write16(unsigned short, unsigned short)
;;;1904   
;;;1905       g_sccb->Write16(0xC826, 0x0020);        //cam_sensor_cfg_reg_0_data = 32
000112  2220              MOVS     r2,#0x20
000114  f64c0126          MOV      r1,#0xc826
000118  68e0              LDR      r0,[r4,#0xc]  ; g_sccb
00011a  f7fffffe          BL       _ZN5CSccb7Write16Ett ; CSccb::Write16(unsigned short, unsigned short)
;;;1906       g_sccb->Write16(0xC834, 0x0330);        //cam_sensor_control_read_mode = 816
00011e  f44f724c          MOV      r2,#0x330
000122  f64c0134          MOV      r1,#0xc834
000126  68e0              LDR      r0,[r4,#0xc]  ; g_sccb
000128  f7fffffe          BL       _ZN5CSccb7Write16Ett ; CSccb::Write16(unsigned short, unsigned short)
;;;1907       g_sccb->Write16(0xC854, 0x0000);        //cam_crop_window_xoffset = 0
00012c  2200              MOVS     r2,#0
00012e  f64c0154          MOV      r1,#0xc854
000132  68e0              LDR      r0,[r4,#0xc]  ; g_sccb
000134  f7fffffe          BL       _ZN5CSccb7Write16Ett ; CSccb::Write16(unsigned short, unsigned short)
;;;1908       g_sccb->Write16(0xC856, 0x0000);        //cam_crop_window_yoffset = 0   
000138  2200              MOVS     r2,#0
00013a  f64c0156          MOV      r1,#0xc856
00013e  68e0              LDR      r0,[r4,#0xc]  ; g_sccb
000140  f7fffffe          BL       _ZN5CSccb7Write16Ett ; CSccb::Write16(unsigned short, unsigned short)
;;;1909   
;;;1910       g_sccb->Write16(0xC858, width2);        //cam_crop_window_width = width
000144  462a              MOV      r2,r5
000146  f64c0158          MOV      r1,#0xc858
00014a  68e0              LDR      r0,[r4,#0xc]  ; g_sccb
00014c  f7fffffe          BL       _ZN5CSccb7Write16Ett ; CSccb::Write16(unsigned short, unsigned short)
;;;1911       g_sccb->Write16(0xC85A, height2);       //cam_crop_window_height = height
000150  4632              MOV      r2,r6
000152  f64c015a          MOV      r1,#0xc85a
000156  68e0              LDR      r0,[r4,#0xc]  ; g_sccb
000158  f7fffffe          BL       _ZN5CSccb7Write16Ett ; CSccb::Write16(unsigned short, unsigned short)
;;;1912   
;;;1913       g_sccb->Write8(0xC85C, 0x03);       //cam_crop_cropmode = 3
00015c  2203              MOVS     r2,#3
00015e  f64c015c          MOV      r1,#0xc85c
000162  68e0              LDR      r0,[r4,#0xc]  ; g_sccb
000164  f7fffffe          BL       _ZN5CSccb6Write8Eth ; CSccb::Write8(unsigned short, unsigned char)
;;;1914   
;;;1915       g_sccb->Write16(0xC868, width2);        //cam_output_width = width
000168  462a              MOV      r2,r5
00016a  f64c0168          MOV      r1,#0xc868
00016e  68e0              LDR      r0,[r4,#0xc]  ; g_sccb
000170  f7fffffe          BL       _ZN5CSccb7Write16Ett ; CSccb::Write16(unsigned short, unsigned short)
;;;1916       g_sccb->Write16(0xC86A, height2);       //cam_output_height = height
000174  4632              MOV      r2,r6
000176  f64c016a          MOV      r1,#0xc86a
00017a  68e0              LDR      r0,[r4,#0xc]  ; g_sccb
00017c  f7fffffe          BL       _ZN5CSccb7Write16Ett ; CSccb::Write16(unsigned short, unsigned short)
;;;1917   
;;;1918       g_sccb->Write16(0xC86C, 0x0E10);        //cam_output_format Processed Bayer
000180  f44f6261          MOV      r2,#0xe10
000184  f64c016c          MOV      r1,#0xc86c
000188  68e0              LDR      r0,[r4,#0xc]  ; g_sccb
00018a  f7fffffe          BL       _ZN5CSccb7Write16Ett ; CSccb::Write16(unsigned short, unsigned short)
;;;1919       g_sccb->Write8(0xC878, 0x00);       //cam_aet_aemode = 0
00018e  2200              MOVS     r2,#0
000190  f64c0178          MOV      r1,#0xc878
000194  68e0              LDR      r0,[r4,#0xc]  ; g_sccb
000196  f7fffffe          BL       _ZN5CSccb6Write8Eth ; CSccb::Write8(unsigned short, unsigned char)
;;;1920   
;;;1921       g_sccb->Write16(0xC88C, rate);      //cam_aet_max_frame_rate = 128*34000000/((46+height)*(542+width))
00019a  4642              MOV      r2,r8
00019c  f64c018c          MOV      r1,#0xc88c
0001a0  68e0              LDR      r0,[r4,#0xc]  ; g_sccb
0001a2  f7fffffe          BL       _ZN5CSccb7Write16Ett ; CSccb::Write16(unsigned short, unsigned short)
;;;1922       g_sccb->Write16(0xC88E, rate);      //cam_aet_min_frame_rate = 128*34000000/((46+height)*(542+width))
0001a6  4642              MOV      r2,r8
0001a8  f64c018e          MOV      r1,#0xc88e
0001ac  68e0              LDR      r0,[r4,#0xc]  ; g_sccb
0001ae  f7fffffe          BL       _ZN5CSccb7Write16Ett ; CSccb::Write16(unsigned short, unsigned short)
;;;1923   
;;;1924       g_sccb->Write16(0xC914, 0x0000);        //cam_stat_awb_clip_window_xstart = 0
0001b2  2200              MOVS     r2,#0
0001b4  f64c1114          MOV      r1,#0xc914
0001b8  68e0              LDR      r0,[r4,#0xc]  ; g_sccb
0001ba  f7fffffe          BL       _ZN5CSccb7Write16Ett ; CSccb::Write16(unsigned short, unsigned short)
;;;1925       g_sccb->Write16(0xC916, 0x0000);        //cam_stat_awb_clip_window_ystart = 0
0001be  2200              MOVS     r2,#0
0001c0  f64c1116          MOV      r1,#0xc916
0001c4  68e0              LDR      r0,[r4,#0xc]  ; g_sccb
0001c6  f7fffffe          BL       _ZN5CSccb7Write16Ett ; CSccb::Write16(unsigned short, unsigned short)
;;;1926   
;;;1927       g_sccb->Write16(0xC918, width2-1);      //cam_stat_awb_clip_window_xend = width-1
0001ca  1e68              SUBS     r0,r5,#1
0001cc  b282              UXTH     r2,r0
0001ce  f64c1118          MOV      r1,#0xc918
0001d2  68e0              LDR      r0,[r4,#0xc]  ; g_sccb
0001d4  f7fffffe          BL       _ZN5CSccb7Write16Ett ; CSccb::Write16(unsigned short, unsigned short)
;;;1928       g_sccb->Write16(0xC91A, height2-1);     //cam_stat_awb_clip_window_yend = height-1
0001d8  1e70              SUBS     r0,r6,#1
0001da  b282              UXTH     r2,r0
0001dc  f64c111a          MOV      r1,#0xc91a
0001e0  68e0              LDR      r0,[r4,#0xc]  ; g_sccb
0001e2  f7fffffe          BL       _ZN5CSccb7Write16Ett ; CSccb::Write16(unsigned short, unsigned short)
;;;1929   
;;;1930       g_sccb->Write16(0xC91C, 0x0000);        //cam_stat_ae_initial_window_xstart = 0
0001e6  2200              MOVS     r2,#0
0001e8  f64c111c          MOV      r1,#0xc91c
0001ec  68e0              LDR      r0,[r4,#0xc]  ; g_sccb
0001ee  f7fffffe          BL       _ZN5CSccb7Write16Ett ; CSccb::Write16(unsigned short, unsigned short)
;;;1931       g_sccb->Write16(0xC91E, 0x0000);        //cam_stat_ae_initial_window_ystart = 0
0001f2  2200              MOVS     r2,#0
0001f4  f64c111e          MOV      r1,#0xc91e
0001f8  68e0              LDR      r0,[r4,#0xc]  ; g_sccb
0001fa  f7fffffe          BL       _ZN5CSccb7Write16Ett ; CSccb::Write16(unsigned short, unsigned short)
;;;1932   
;;;1933       g_sccb->Write16(0xC920, width2/5-1);        //cam_stat_ae_initial_window_xend = width/5 - 1
0001fe  2705              MOVS     r7,#5
000200  fbb5f0f7          UDIV     r0,r5,r7
000204  1e40              SUBS     r0,r0,#1
000206  b282              UXTH     r2,r0
000208  f64c1120          MOV      r1,#0xc920
00020c  68e0              LDR      r0,[r4,#0xc]  ; g_sccb
00020e  f7fffffe          BL       _ZN5CSccb7Write16Ett ; CSccb::Write16(unsigned short, unsigned short)
;;;1934       g_sccb->Write16(0xC922, height2/5-1);       //cam_stat_ae_initial_window_yend = height/5  - 1
000212  fbb6f0f7          UDIV     r0,r6,r7
000216  1e40              SUBS     r0,r0,#1
000218  b282              UXTH     r2,r0
00021a  f64c1122          MOV      r1,#0xc922
00021e  68e0              LDR      r0,[r4,#0xc]  ; g_sccb
000220  f7fffffe          BL       _ZN5CSccb7Write16Ett ; CSccb::Write16(unsigned short, unsigned short)
;;;1935   #else
;;;1936         g_sccb->Write16(0xC800, 0x00f0);// CAM_SENSOR_CFG_Y_ADDR_START - [0:00:07.530]
;;;1937         g_sccb->Write16(0xC802, 0x0140);// CAM_SENSOR_CFG_X_ADDR_START - [0:00:07.535]
;;;1938         g_sccb->Write16(0xC804, 0x02dd);// CAM_SENSOR_CFG_Y_ADDR_END - [0:00:07.540]
;;;1939         g_sccb->Write16(0xC806, 0x03cd);// CAM_SENSOR_CFG_X_ADDR_END - [0:00:07.545]
;;;1940         g_sccb->Write32(0xC808, 0x0206CC80);// CAM_SENSOR_CFG_PIXCLK - [0:00:07.550]
;;;1941         g_sccb->Write16(0xC80C, 0x0001);// CAM_SENSOR_CFG_ROW_SPEED - [0:00:07.555]
;;;1942         g_sccb->Write16(0xC80E, 0x01C3);// CAM_SENSOR_CFG_FINE_INTEG_TIME_MIN - [0:00:07.560]
;;;1943         g_sccb->Write16(0xC810, 0x0273);// CAM_SENSOR_CFG_FINE_INTEG_TIME_MAX - [0:00:07.565]
;;;1944         g_sccb->Write16(0xC812, 0x011e);// CAM_SENSOR_CFG_FRAME_LENGTH_LINES - [0:00:07.570]
;;;1945         g_sccb->Write16(0xC814, 0x035e);// CAM_SENSOR_CFG_LINE_LENGTH_PCK - [0:00:07.575]
;;;1946         g_sccb->Write16(0xC816, 0x00E0);// CAM_SENSOR_CFG_FINE_CORRECTION - [0:00:07.580]
;;;1947         g_sccb->Write16(0xC818, 0x00f3);// CAM_SENSOR_CFG_CPIPE_LAST_ROW - [0:00:07.585]
;;;1948         g_sccb->Write16(0xC826, 0x0020);// CAM_SENSOR_CFG_REG_0_DATA - [0:00:07.590]
;;;1949         g_sccb->Write16(0xC834, 0x0330);// CAM_SENSOR_CONTROL_READ_MODE - [0:00:07.595]
;;;1950         g_sccb->Write16(0xC854, 0x0000);// CAM_CROP_WINDOW_XOFFSET - [0:00:07.600]
;;;1951         g_sccb->Write16(0xC856, 0x0000);// CAM_CROP_WINDOW_YOFFSET - [0:00:07.605]
;;;1952         g_sccb->Write16(0xC858, 0x0140);// CAM_CROP_WINDOW_WIDTH - [0:00:07.610]
;;;1953         g_sccb->Write16(0xC85A, 0x00f0);// CAM_CROP_WINDOW_HEIGHT - [0:00:07.615]
;;;1954         g_sccb->Write8(0xC85C, 0x03);// CAM_CROP_CROPMODE - [0:00:07.620]
;;;1955         g_sccb->Write16(0xC868, 0x0140);// CAM_OUTPUT_WIDTH - [0:00:07.625]
;;;1956         g_sccb->Write16(0xC86A, 0x00f0);// CAM_OUTPUT_HEIGHT - [0:00:07.630]
;;;1957         g_sccb->Write16(0xC86C, 0x0E10);// cam_output_format Processed Bayer
;;;1958         g_sccb->Write8(0xC878, 0x00);// CAM_AET_AEMODE - [0:00:07.635]
;;;1959         g_sccb->Write16(0xC88C, 0x44f5);// CAM_AET_MAX_FRAME_RATE - [0:00:07.640]
;;;1960         g_sccb->Write16(0xC88E, 0x44f5);// CAM_AET_MIN_FRAME_RATE - [0:00:07.645]
;;;1961         g_sccb->Write16(0xC914, 0x0000);// CAM_STAT_AWB_CLIP_WINDOW_XSTART - [0:00:07.650]
;;;1962         g_sccb->Write16(0xC916, 0x0000);// CAM_STAT_AWB_CLIP_WINDOW_YSTART - [0:00:07.655]
;;;1963         g_sccb->Write16(0xC918, 0x013f);// CAM_STAT_AWB_CLIP_WINDOW_XEND - [0:00:07.660]
;;;1964         g_sccb->Write16(0xC91A, 0x00ef);// CAM_STAT_AWB_CLIP_WINDOW_YEND - [0:00:07.665]
;;;1965         g_sccb->Write16(0xC91C, 0x0000);// CAM_STAT_AE_INITIAL_WINDOW_XSTART - [0:00:07.670]
;;;1966         g_sccb->Write16(0xC91E, 0x0000);// CAM_STAT_AE_INITIAL_WINDOW_YSTART - [0:00:07.675]
;;;1967         g_sccb->Write16(0xC920, 0x003f);// CAM_STAT_AE_INITIAL_WINDOW_XEND - [0:00:07.680]
;;;1968         g_sccb->Write16(0xC922, 0x002f);// CAM_STAT_AE_INITIAL_WINDOW_YEND - [0:00:07.685]
;;;1969   
;;;1970   #endif
;;;1971       cam_sendCommand();
000224  f7fffffe          BL       _Z15cam_sendCommandv ; cam_sendCommand()
;;;1972   
;;;1973       return 0;
000228  2000              MOVS     r0,#0
;;;1974   }
00022a  e8bd81f0          POP      {r4-r8,pc}
;;;1975   
                          ENDP

00022e  0000              DCW      0x0000
                  |L32.560|
000230  42380000          DCFS     0x42380000 ; 46
                  |L32.564|
000234  44078000          DCFS     0x44078000 ; 542
                  |L32.568|
000238  4b81b320          DCFS     0x4b81b320 ; 17000000
                  |L32.572|
00023c  44000000          DCFS     0x44000000 ; 512
                  |L32.576|
                          DCD      ||.data||
                  |L32.580|
                          DCD      0x0206cc80

                          AREA ||i._Z17cam_setSaturationRKh||, CODE, READONLY, ALIGN=2

                  _Z17cam_setSaturationRKh PROC ; cam_setSaturation(const unsigned char&)
;;;1766   
;;;1767   int32_t cam_setSaturation(const uint8_t &saturation)
000000  b570              PUSH     {r4-r6,lr}
;;;1768   {
000002  4604              MOV      r4,r0
;;;1769       g_sccb->Write16(0xcc12, saturation);
000004  4d05              LDR      r5,|L33.28|
000006  7822              LDRB     r2,[r4,#0]
000008  f64c4112          MOV      r1,#0xcc12
00000c  68e8              LDR      r0,[r5,#0xc]  ; g_sccb
00000e  f7fffffe          BL       _ZN5CSccb7Write16Ett ; CSccb::Write16(unsigned short, unsigned short)
;;;1770       g_saturation = saturation;
000012  7820              LDRB     r0,[r4,#0]
000014  7128              STRB     r0,[r5,#4]
;;;1771   
;;;1772       return 0;
000016  2000              MOVS     r0,#0
;;;1773   }
000018  bd70              POP      {r4-r6,pc}
;;;1774   
                          ENDP

00001a  0000              DCW      0x0000
                  |L33.28|
                          DCD      ||.data||

                          AREA ||i._Z18cam_getFramePeriodv||, CODE, READONLY, ALIGN=2

                  _Z18cam_getFramePeriodv PROC ; cam_getFramePeriod()
;;;2062   
;;;2063   int32_t cam_getFramePeriod()
000000  4801              LDR      r0,|L34.8|
;;;2064   {
;;;2065       // get frame period from M0, scale by 16 to get useconds
;;;2066       return SM_OBJECT->frameTime<<4;
000002  8800              LDRH     r0,[r0,#0]
000004  0100              LSLS     r0,r0,#4
;;;2067   }
000006  4770              BX       lr
;;;2068   
                          ENDP

                  |L34.8|
                          DCD      0x2000fc04

                          AREA ||i._Z18cam_shadowCallbackPKcRKh||, CODE, READONLY, ALIGN=2

                  _Z18cam_shadowCallbackPKcRKh PROC ; cam_shadowCallback(const char*, const unsigned char&)
;;;2087   
;;;2088   void cam_shadowCallback(const char *id, const uint8_t &val)
000000  b570              PUSH     {r4-r6,lr}
;;;2089   {
000002  4606              MOV      r6,r0
000004  460c              MOV      r4,r1
;;;2090       if (strcmp(id, "Camera brightness")==0)
000006  a127              ADR      r1,|L35.164|
000008  4630              MOV      r0,r6
00000a  f7fffffe          BL       strcmp
00000e  2800              CMP      r0,#0
000010  d025              BEQ      |L35.94|
;;;2091           cam_setBrightness(val);
;;;2092       else if (strcmp(id, "Color saturation")==0)
000012  a129              ADR      r1,|L35.184|
000014  4630              MOV      r0,r6
000016  f7fffffe          BL       strcmp
00001a  2800              CMP      r0,#0
00001c  d024              BEQ      |L35.104|
;;;2093           cam_setSaturation(val);
;;;2094       else if (strcmp(id, "Min frames per second")==0)
00001e  a12b              ADR      r1,|L35.204|
000020  4630              MOV      r0,r6
000022  f7fffffe          BL       strcmp
000026  b320              CBZ      r0,|L35.114|
;;;2095           cam_setFramerate(val);
;;;2096       else if (strcmp(id, "Flicker avoidance")==0)
000028  a12e              ADR      r1,|L35.228|
00002a  4630              MOV      r0,r6
00002c  f7fffffe          BL       strcmp
000030  b320              CBZ      r0,|L35.124|
;;;2097           cam_setFlickerAvoidance(val);
;;;2098       else if (strcmp(id, "Auto Exposure Correction")==0)
000032  a131              ADR      r1,|L35.248|
000034  4630              MOV      r0,r6
000036  f7fffffe          BL       strcmp
;;;2099       {
;;;2100           cam_setAEC(val);
;;;2101           if (val==0)
;;;2102           {
;;;2103               delayus(50000); // wait a few frames so we can be sure the value is valid 
;;;2104               g_aecValue = cam_getECV();
00003a  4d36              LDR      r5,|L35.276|
00003c  b318              CBZ      r0,|L35.134|
;;;2105           }
;;;2106       }
;;;2107       else if (strcmp(id, "Auto White Balance")==0)
00003e  a136              ADR      r1,|L35.280|
000040  4630              MOV      r0,r6
000042  f7fffffe          BL       strcmp
000046  2800              CMP      r0,#0
000048  d108              BNE      |L35.92|
;;;2108       {
;;;2109           cam_setAWB(val);
00004a  4620              MOV      r0,r4
00004c  f7fffffe          BL       _Z10cam_setAWBRKh ; cam_setAWB(const unsigned char&)
;;;2110           if (val==0)
000050  7820              LDRB     r0,[r4,#0]
000052  2800              CMP      r0,#0
000054  d102              BNE      |L35.92|
;;;2111               g_awbValue = cam_getWBV();
000056  f7fffffe          BL       _Z10cam_getWBVv ; cam_getWBV()
00005a  6168              STR      r0,[r5,#0x14]  ; g_awbValue
                  |L35.92|
;;;2112       } 
;;;2113   }
00005c  bd70              POP      {r4-r6,pc}
                  |L35.94|
00005e  4620              MOV      r0,r4                 ;2091
000060  e8bd4070          POP      {r4-r6,lr}            ;2091
000064  f7ffbffe          B.W      _Z17cam_setBrightnessRKh ; cam_setBrightness(const unsigned char&)
                  |L35.104|
000068  4620              MOV      r0,r4                 ;2093
00006a  e8bd4070          POP      {r4-r6,lr}            ;2093
00006e  f7ffbffe          B.W      _Z17cam_setSaturationRKh ; cam_setSaturation(const unsigned char&)
                  |L35.114|
000072  4620              MOV      r0,r4                 ;2095
000074  e8bd4070          POP      {r4-r6,lr}            ;2095
000078  f7ffbffe          B.W      _Z16cam_setFramerateRKh ; cam_setFramerate(const unsigned char&)
                  |L35.124|
00007c  4620              MOV      r0,r4                 ;2097
00007e  e8bd4070          POP      {r4-r6,lr}            ;2097
000082  f7ffbffe          B.W      _Z23cam_setFlickerAvoidanceRKh ; cam_setFlickerAvoidance(const unsigned char&)
                  |L35.134|
000086  4620              MOV      r0,r4                 ;2100
000088  f7fffffe          BL       _Z10cam_setAECRKh ; cam_setAEC(const unsigned char&)
00008c  7820              LDRB     r0,[r4,#0]            ;2101
00008e  2800              CMP      r0,#0                 ;2101
000090  d1e4              BNE      |L35.92|
000092  f24c3050          MOV      r0,#0xc350            ;2103
000096  f7fffffe          BL       delayus
00009a  f7fffffe          BL       _Z10cam_getECVv ; cam_getECV()
00009e  6128              STR      r0,[r5,#0x10]         ;2104  ; g_aecValue
0000a0  bd70              POP      {r4-r6,pc}
;;;2114   
                          ENDP

0000a2  0000              DCW      0x0000
                  |L35.164|
0000a4  43616d65          DCB      "Camera brightness",0
0000a8  72612062
0000ac  72696768
0000b0  746e6573
0000b4  7300    
0000b6  00                DCB      0
0000b7  00                DCB      0
                  |L35.184|
0000b8  436f6c6f          DCB      "Color saturation",0
0000bc  72207361
0000c0  74757261
0000c4  74696f6e
0000c8  00      
0000c9  00                DCB      0
0000ca  00                DCB      0
0000cb  00                DCB      0
                  |L35.204|
0000cc  4d696e20          DCB      "Min frames per second",0
0000d0  6672616d
0000d4  65732070
0000d8  65722073
0000dc  65636f6e
0000e0  6400    
0000e2  00                DCB      0
0000e3  00                DCB      0
                  |L35.228|
0000e4  466c6963          DCB      "Flicker avoidance",0
0000e8  6b657220
0000ec  61766f69
0000f0  64616e63
0000f4  6500    
0000f6  00                DCB      0
0000f7  00                DCB      0
                  |L35.248|
0000f8  4175746f          DCB      "Auto Exposure Correction",0
0000fc  20457870
000100  6f737572
000104  6520436f
000108  72726563
00010c  74696f6e
000110  00      
000111  00                DCB      0
000112  00                DCB      0
000113  00                DCB      0
                  |L35.276|
                          DCD      ||.data||
                  |L35.280|
000118  4175746f          DCB      "Auto White Balance",0
00011c  20576869
000120  74652042
000124  616c616e
000128  636500  
00012b  00                DCB      0

                          AREA ||i._Z22cam_getFrameChirpFlagsRKhRKtS2_S2_S2_P5Chirphb||, CODE, READONLY, ALIGN=2

                  _Z22cam_getFrameChirpFlagsRKhRKtS2_S2_S2_P5Chirphb PROC ; cam_getFrameChirpFlags(const unsigned char&, const unsigned short&, const unsigned short&, const unsigned short&, const unsigned short&, Chirp*, unsigned char, bool)
;;;1981   
;;;1982   int32_t cam_getFrameChirpFlags(const uint8_t &type, const uint16_t &xOffset, const uint16_t &yOffset, const uint16_t &xWidth, const uint16_t &yWidth, Chirp *chirp, uint8_t renderFlags, bool remote)
000000  e92d47f0          PUSH     {r4-r10,lr}
;;;1983   {
000004  b08a              SUB      sp,sp,#0x28
000006  4681              MOV      r9,r0
000008  e9dd7813          LDRD     r7,r8,[sp,#0x4c]
00000c  9e15              LDR      r6,[sp,#0x54]
00000e  9d12              LDR      r5,[sp,#0x48]
000010  461c              MOV      r4,r3
;;;1984       int32_t result;
;;;1985       int32_t len;
;;;1986       uint8_t *frame = (uint8_t *)SRAM1_LOC + CAM_PREBUF_LEN;
000012  f8dfc088          LDR      r12,|L36.156|
;;;1987   
;;;1988       result = cam_getFrame(frame, SRAM1_SIZE-CAM_PREBUF_LEN, type, xOffset, yOffset, xWidth, yWidth);
000016  882b              LDRH     r3,[r5,#0]
000018  f8b4a000          LDRH     r10,[r4,#0]
00001c  8810              LDRH     r0,[r2,#0]
00001e  e9cda301          STRD     r10,r3,[sp,#4]
000022  9000              STR      r0,[sp,#0]
000024  880b              LDRH     r3,[r1,#0]
000026  f8992000          LDRB     r2,[r9,#0]
00002a  491d              LDR      r1,|L36.160|
00002c  4660              MOV      r0,r12
00002e  f7fffffe          BL       _Z12cam_getFramePhjhtttt ; cam_getFrame(unsigned char*, unsigned, unsigned char, unsigned short, unsigned short, unsigned short, unsigned short)
;;;1989       if (result<0)
000032  2800              CMP      r0,#0
000034  db22              BLT      |L36.124|
;;;1990           return result;
;;;1991       
;;;1992       if (remote) // remote calls have 4 more bytes...
000036  b376              CBZ      r6,|L36.150|
;;;1993       {
;;;1994           frame -= CAM_FRAME_HEADER_LEN + 4; // +4 because of responseInt
000038  4918              LDR      r1,|L36.156|
00003a  3928              SUBS     r1,r1,#0x28
00003c  460e              MOV      r6,r1
;;;1995           // fill buffer contents manually for return data
;;;1996           len = Chirp::serialize(chirp, frame, SRAM1_SIZE, HTYPE(FOURCC('B','A','8','1')), HINT8(renderFlags), UINT16(xWidth), UINT16(yWidth), UINTS8_NO_COPY(xWidth*yWidth), END);
00003e  8820              LDRH     r0,[r4,#0]
000040  882a              LDRH     r2,[r5,#0]
000042  f04f0c00          MOV      r12,#0
000046  fb00f302          MUL      r3,r0,r2
00004a  f04f09b1          MOV      r9,#0xb1
00004e  e9cd3c08          STRD     r3,r12,[sp,#0x20]
000052  e9cd2906          STRD     r2,r9,[sp,#0x18]
000056  2202              MOVS     r2,#2
000058  e9cd0204          STRD     r0,r2,[sp,#0x10]
00005c  e9cd8202          STRD     r8,r2,[sp,#8]
000060  2041              MOVS     r0,#0x41
000062  4a10              LDR      r2,|L36.164|
000064  e9cd2000          STRD     r2,r0,[sp,#0]
000068  2364              MOVS     r3,#0x64
00006a  f44f3290          MOV      r2,#0x12000
00006e  4638              MOV      r0,r7
000070  f7fffffe          BL       _ZN5Chirp9serializeEPS_Phjz ; Chirp::serialize(Chirp*, unsigned char*, unsigned, ...)
;;;1997           if (len!=CAM_FRAME_HEADER_LEN+4)
000074  2828              CMP      r0,#0x28
000076  d004              BEQ      |L36.130|
;;;1998               return -1;
000078  f04f30ff          MOV      r0,#0xffffffff
                  |L36.124|
;;;1999   
;;;2000           // tell chirp to use this buffer
;;;2001           chirp->useBuffer(frame, CAM_FRAME_HEADER_LEN+4+xWidth*yWidth);
;;;2002           return 0;
;;;2003       }
;;;2004       else
;;;2005           return 0;//cam_sendFrame(chirp, xWidth, yWidth, renderFlags);
;;;2006   }
00007c  b00a              ADD      sp,sp,#0x28
00007e  e8bd87f0          POP      {r4-r10,pc}
                  |L36.130|
000082  8822              LDRH     r2,[r4,#0]            ;2001
000084  8828              LDRH     r0,[r5,#0]            ;2001
000086  4631              MOV      r1,r6                 ;2001
000088  4342              MULS     r2,r0,r2              ;2001
00008a  3228              ADDS     r2,r2,#0x28           ;2001
00008c  4638              MOV      r0,r7                 ;2001
00008e  f7fffffe          BL       _ZN5Chirp9useBufferEPhj ; Chirp::useBuffer(unsigned char*, unsigned)
000092  2000              MOVS     r0,#0                 ;2002
000094  e7f2              B        |L36.124|
                  |L36.150|
000096  e7ff              B        |L36.152|
                  |L36.152|
000098  2000              MOVS     r0,#0                 ;2005
00009a  e7ef              B        |L36.124|
;;;2007   
                          ENDP

                  |L36.156|
                          DCD      0x10080040
                  |L36.160|
                          DCD      0x00011fc0
                  |L36.164|
                          DCD      0x31384142

                          AREA ||i._Z23cam_setFlickerAvoidanceRKh||, CODE, READONLY, ALIGN=2

                  _Z23cam_setFlickerAvoidanceRKh PROC ; cam_setFlickerAvoidance(const unsigned char&)
;;;1784   
;;;1785   int32_t cam_setFlickerAvoidance(const uint8_t &fa)
000000  b510              PUSH     {r4,lr}
;;;1786   {
;;;1787       if (fa)
000002  7802              LDRB     r2,[r0,#0]
;;;1788           g_sccb->Write8(0xcc21, 1);
000004  4807              LDR      r0,|L37.36|
000006  f64c4121          MOV      r1,#0xcc21
00000a  2a00              CMP      r2,#0                 ;1787
00000c  68c0              LDR      r0,[r0,#0xc]
00000e  d003              BEQ      |L37.24|
000010  2201              MOVS     r2,#1
000012  f7fffffe          BL       _ZN5CSccb6Write8Eth ; CSccb::Write8(unsigned short, unsigned char)
000016  e002              B        |L37.30|
                  |L37.24|
;;;1789       else
;;;1790           g_sccb->Write8(0xcc21, 0);
000018  2200              MOVS     r2,#0
00001a  f7fffffe          BL       _ZN5CSccb6Write8Eth ; CSccb::Write8(unsigned short, unsigned char)
                  |L37.30|
;;;1791   
;;;1792       return 0;
00001e  2000              MOVS     r0,#0
;;;1793   }
000020  bd10              POP      {r4,pc}
;;;1794           
                          ENDP

000022  0000              DCW      0x0000
                  |L37.36|
                          DCD      ||.data||

                          AREA ||i._Z8cam_initPt||, CODE, READONLY, ALIGN=2

                  _Z8cam_initPt PROC ; cam_init(unsigned short*)
;;;1604   
;;;1605   int cam_init(uint16_t *hwVer)
000000  b57f              PUSH     {r0-r6,lr}
;;;1606   {   
000002  4605              MOV      r5,r0
;;;1607       g_sccb = new CSccb(0x90);
000004  2004              MOVS     r0,#4
000006  f7fffffe          BL       _Znwj ; operator new(unsigned)
00000a  2190              MOVS     r1,#0x90
00000c  f7fffffe          BL       _ZN5CSccbC1Eh ; CSccb::CSccb(unsigned char)
000010  4c18              LDR      r4,|L38.116|
000012  60e0              STR      r0,[r4,#0xc]  ; g_sccb
;;;1608   
;;;1609       cam_runCommands(camInitData);
000014  4818              LDR      r0,|L38.120|
000016  f7fffffe          BL       _Z15cam_runCommandsPK10CamCommand ; cam_runCommands(const CamCommand*)
;;;1610   	if (hwVer[1]==2)
00001a  8868              LDRH     r0,[r5,#2]
00001c  2802              CMP      r0,#2
00001e  d102              BNE      |L38.38|
;;;1611   		cam_runCommands(camAPGAData);
000020  4816              LDR      r0,|L38.124|
000022  f7fffffe          BL       _Z15cam_runCommandsPK10CamCommand ; cam_runCommands(const CamCommand*)
                  |L38.38|
;;;1612   	//else
;;;1613   	//	cam_runCommands(camAPGAData2);
;;;1614       
;;;1615       g_chirpUsb->registerModule(g_module);
000026  4817              LDR      r0,|L38.132|
000028  4915              LDR      r1,|L38.128|
00002a  6800              LDR      r0,[r0,#0]  ; g_chirpUsb
00002c  f7fffffe          BL       _ZN5Chirp14registerModuleEPK10ProcModule ; Chirp::registerModule(const ProcModule*)
;;;1616       
;;;1617       g_getFrameM0 = g_chirpM0->getProc("getFrame", NULL);
000030  4d18              LDR      r5,|L38.148|
000032  2200              MOVS     r2,#0
000034  a114              ADR      r1,|L38.136|
000036  6828              LDR      r0,[r5,#0]  ; g_chirpM0
000038  f7fffffe          BL       _ZN5Chirp7getProcEPKcPFjPS_E ; Chirp::getProc(const char*, unsigned(*)(Chirp*))
00003c  80e0              STRH     r0,[r4,#6]
;;;1618       g_getTimingM0 = g_chirpM0->getProc("getTiming", NULL);
00003e  2200              MOVS     r2,#0
000040  a115              ADR      r1,|L38.152|
000042  6828              LDR      r0,[r5,#0]  ; g_chirpM0
000044  f7fffffe          BL       _ZN5Chirp7getProcEPKcPFjPS_E ; Chirp::getProc(const char*, unsigned(*)(Chirp*))
000048  8120              STRH     r0,[r4,#8]
;;;1619       
;;;1620       if (g_getFrameM0<0 || g_getTimingM0<0)
00004a  f9b41006          LDRSH    r1,[r4,#6]  ; g_getFrameM0
00004e  2900              CMP      r1,#0
000050  db01              BLT      |L38.86|
000052  2800              CMP      r0,#0
000054  da03              BGE      |L38.94|
                  |L38.86|
;;;1621           return -1;
000056  f04f30ff          MOV      r0,#0xffffffff
                  |L38.90|
;;;1622   
;;;1623       cam_loadParams();
;;;1624       
;;;1625       // get timings
;;;1626       uint16_t hblank, hactive, vblank, vactive;
;;;1627       cam_getTiming(&hblank, &hactive, &vblank, &vactive);
;;;1628       
;;;1629       return 0;
;;;1630   }
00005a  b004              ADD      sp,sp,#0x10
00005c  bd70              POP      {r4-r6,pc}
                  |L38.94|
00005e  f7fffffe          BL       _Z14cam_loadParamsv ; cam_loadParams()
000062  466b              MOV      r3,sp                 ;1627
000064  aa01              ADD      r2,sp,#4              ;1627
000066  a902              ADD      r1,sp,#8              ;1627
000068  a803              ADD      r0,sp,#0xc            ;1627
00006a  f7fffffe          BL       _Z13cam_getTimingPtS_S_S_ ; cam_getTiming(unsigned short*, unsigned short*, unsigned short*, unsigned short*)
00006e  2000              MOVS     r0,#0                 ;1629
000070  e7f3              B        |L38.90|
;;;1631   
                          ENDP

000072  0000              DCW      0x0000
                  |L38.116|
                          DCD      ||.data||
                  |L38.120|
                          DCD      ||.constdata||+0x648
                  |L38.124|
                          DCD      ||.constdata||+0x270
                  |L38.128|
                          DCD      ||.constdata||
                  |L38.132|
                          DCD      g_chirpUsb
                  |L38.136|
000088  67657446          DCB      "getFrame",0
00008c  72616d65
000090  00      
000091  00                DCB      0
000092  00                DCB      0
000093  00                DCB      0
                  |L38.148|
                          DCD      g_chirpM0
                  |L38.152|
000098  67657454          DCB      "getTiming",0
00009c  696d696e
0000a0  6700    
0000a2  00                DCB      0
0000a3  00                DCB      0

                          AREA ||i.__sti___10_camera_cpp_g_sccb||, CODE, READONLY, ALIGN=2

                  __sti___10_camera_cpp_g_sccb PROC
000000  4802              LDR      r0,|L39.12|
000002  2100              MOVS     r1,#0
000004  6001              STR      r1,[r0,#0]
000006  80c1              STRH     r1,[r0,#6]
000008  8081              STRH     r1,[r0,#4]
00000a  4770              BX       lr
                          ENDP

                  |L39.12|
                          DCD      ||.data||+0x18

                          AREA ||.ARM.exidx||, LINKORDER=||i._Z15cam_sendCommandv||, DATA, READONLY, SECTYPE={SHT_ARM_EXIDX}, ALIGN=2

                          DCD      0x00000000
                          RELOC 42, ||i._Z15cam_sendCommandv||
                          DCD      0x00000001

                          AREA ||area_number.41||, LINKORDER=||i._Z14cam_applyPatchv||, DATA, READONLY, SECTYPE={SHT_ARM_EXIDX}, ALIGN=2

                          EXPORTAS ||area_number.41||, ||.ARM.exidx||
                          DCD      0x00000000
                          RELOC 42, ||i._Z14cam_applyPatchv||
                          DCD      0x00000001

                          AREA ||area_number.42||, LINKORDER=||i._Z17cam_setResolutionRKtS0_S0_S0_||, DATA, READONLY, SECTYPE={SHT_ARM_EXIDX}, ALIGN=2

                          EXPORTAS ||area_number.42||, ||.ARM.exidx||
                          DCD      0x00000000
                          RELOC 42, ||i._Z17cam_setResolutionRKtS0_S0_S0_||
                          DCD      0x00000001

                          AREA ||area_number.43||, LINKORDER=||i._Z15cam_runCommandsPK10CamCommand||, DATA, READONLY, SECTYPE={SHT_ARM_EXIDX}, ALIGN=2

                          EXPORTAS ||area_number.43||, ||.ARM.exidx||
                          DCD      0x00000000
                          RELOC 42, ||i._Z15cam_runCommandsPK10CamCommand||
                          DCD      0x00000001

                          AREA ||area_number.44||, LINKORDER=||i._Z13cam_getTimingPtS_S_S_||, DATA, READONLY, SECTYPE={SHT_ARM_EXIDX}, ALIGN=2

                          EXPORTAS ||area_number.44||, ||.ARM.exidx||
                          DCD      0x00000000
                          RELOC 42, ||i._Z13cam_getTimingPtS_S_S_||
                          DCD      0x00000001

                          AREA ||area_number.45||, LINKORDER=||i._Z10cam_setWBVRKj||, DATA, READONLY, SECTYPE={SHT_ARM_EXIDX}, ALIGN=2

                          EXPORTAS ||area_number.45||, ||.ARM.exidx||
                          DCD      0x00000000
                          RELOC 42, ||i._Z10cam_setWBVRKj||
                          DCD      0x00000001

                          AREA ||area_number.46||, LINKORDER=||i._Z10cam_setAWBRKh||, DATA, READONLY, SECTYPE={SHT_ARM_EXIDX}, ALIGN=2

                          EXPORTAS ||area_number.46||, ||.ARM.exidx||
                          DCD      0x00000000
                          RELOC 42, ||i._Z10cam_setAWBRKh||
                          DCD      0x00000001

                          AREA ||area_number.47||, LINKORDER=||i._Z10cam_setECVRKj||, DATA, READONLY, SECTYPE={SHT_ARM_EXIDX}, ALIGN=2

                          EXPORTAS ||area_number.47||, ||.ARM.exidx||
                          DCD      0x00000000
                          RELOC 42, ||i._Z10cam_setECVRKj||
                          DCD      0x00000001

                          AREA ||area_number.48||, LINKORDER=||i._Z10cam_setAECRKh||, DATA, READONLY, SECTYPE={SHT_ARM_EXIDX}, ALIGN=2

                          EXPORTAS ||area_number.48||, ||.ARM.exidx||
                          DCD      0x00000000
                          RELOC 42, ||i._Z10cam_setAECRKh||
                          DCD      0x00000001

                          AREA ||area_number.49||, LINKORDER=||i._Z16cam_setFramerateRKh||, DATA, READONLY, SECTYPE={SHT_ARM_EXIDX}, ALIGN=2

                          EXPORTAS ||area_number.49||, ||.ARM.exidx||
                          DCD      0x00000000
                          RELOC 42, ||i._Z16cam_setFramerateRKh||
                          DCD      0x00000001

                          AREA ||area_number.50||, LINKORDER=||i._Z23cam_setFlickerAvoidanceRKh||, DATA, READONLY, SECTYPE={SHT_ARM_EXIDX}, ALIGN=2

                          EXPORTAS ||area_number.50||, ||.ARM.exidx||
                          DCD      0x00000000
                          RELOC 42, ||i._Z23cam_setFlickerAvoidanceRKh||
                          DCD      0x00000001

                          AREA ||area_number.51||, LINKORDER=||i._Z17cam_setBrightnessRKh||, DATA, READONLY, SECTYPE={SHT_ARM_EXIDX}, ALIGN=2

                          EXPORTAS ||area_number.51||, ||.ARM.exidx||
                          DCD      0x00000000
                          RELOC 42, ||i._Z17cam_setBrightnessRKh||
                          DCD      0x00000001

                          AREA ||area_number.52||, LINKORDER=||i._Z10cam_getWBVv||, DATA, READONLY, SECTYPE={SHT_ARM_EXIDX}, ALIGN=2

                          EXPORTAS ||area_number.52||, ||.ARM.exidx||
                          DCD      0x00000000
                          RELOC 42, ||i._Z10cam_getWBVv||
                          DCD      0x00000001

                          AREA ||area_number.53||, LINKORDER=||i._Z10cam_getECVv||, DATA, READONLY, SECTYPE={SHT_ARM_EXIDX}, ALIGN=2

                          EXPORTAS ||area_number.53||, ||.ARM.exidx||
                          DCD      0x00000000
                          RELOC 42, ||i._Z10cam_getECVv||
                          DCD      0x00000001

                          AREA ||area_number.54||, LINKORDER=||i._Z17cam_setSaturationRKh||, DATA, READONLY, SECTYPE={SHT_ARM_EXIDX}, ALIGN=2

                          EXPORTAS ||area_number.54||, ||.ARM.exidx||
                          DCD      0x00000000
                          RELOC 42, ||i._Z17cam_setSaturationRKh||
                          DCD      0x00000001

                          AREA ||area_number.55||, LINKORDER=||i._Z18cam_shadowCallbackPKcRKh||, DATA, READONLY, SECTYPE={SHT_ARM_EXIDX}, ALIGN=2

                          EXPORTAS ||area_number.55||, ||.ARM.exidx||
                          DCD      0x00000000
                          RELOC 42, ||i._Z18cam_shadowCallbackPKcRKh||
                          DCD      0x00000001

                          AREA ||area_number.56||, LINKORDER=||i._Z14cam_loadParamsv||, DATA, READONLY, SECTYPE={SHT_ARM_EXIDX}, ALIGN=2

                          EXPORTAS ||area_number.56||, ||.ARM.exidx||
                          DCD      0x00000000
                          RELOC 42, ||i._Z14cam_loadParamsv||
                          DCD      0x00000001

                          AREA ||area_number.57||, LINKORDER=||i._Z8cam_initPt||, DATA, READONLY, SECTYPE={SHT_ARM_EXIDX}, ALIGN=2

                          EXPORTAS ||area_number.57||, ||.ARM.exidx||
                          DCD      0x00000000
                          RELOC 42, ||i._Z8cam_initPt||
                          DCD      0x00000001

                          AREA ||area_number.58||, LINKORDER=||i._Z11cam_setModeRKh||, DATA, READONLY, SECTYPE={SHT_ARM_EXIDX}, ALIGN=2

                          EXPORTAS ||area_number.58||, ||.ARM.exidx||
                          DCD      0x00000000
                          RELOC 42, ||i._Z11cam_setModeRKh||
                          DCD      0x00000001

                          AREA ||area_number.59||, LINKORDER=||i._Z11cam_getModev||, DATA, READONLY, SECTYPE={SHT_ARM_EXIDX}, ALIGN=2

                          EXPORTAS ||area_number.59||, ||.ARM.exidx||
                          DCD      0x00000000
                          RELOC 42, ||i._Z11cam_getModev||
                          DCD      0x00000001

                          AREA ||area_number.60||, LINKORDER=||i._Z10cam_getAWBv||, DATA, READONLY, SECTYPE={SHT_ARM_EXIDX}, ALIGN=2

                          EXPORTAS ||area_number.60||, ||.ARM.exidx||
                          DCD      0x00000000
                          RELOC 42, ||i._Z10cam_getAWBv||
                          DCD      0x00000001

                          AREA ||area_number.61||, LINKORDER=||i._Z10cam_getAECv||, DATA, READONLY, SECTYPE={SHT_ARM_EXIDX}, ALIGN=2

                          EXPORTAS ||area_number.61||, ||.ARM.exidx||
                          DCD      0x00000000
                          RELOC 42, ||i._Z10cam_getAECv||
                          DCD      0x00000001

                          AREA ||area_number.62||, LINKORDER=||i._Z17cam_getSaturationv||, DATA, READONLY, SECTYPE={SHT_ARM_EXIDX}, ALIGN=2

                          EXPORTAS ||area_number.62||, ||.ARM.exidx||
                          DCD      0x00000000
                          RELOC 42, ||i._Z17cam_getSaturationv||
                          DCD      0x00000001

                          AREA ||area_number.63||, LINKORDER=||i._Z17cam_getBrightnessv||, DATA, READONLY, SECTYPE={SHT_ARM_EXIDX}, ALIGN=2

                          EXPORTAS ||area_number.63||, ||.ARM.exidx||
                          DCD      0x00000000
                          RELOC 42, ||i._Z17cam_getBrightnessv||
                          DCD      0x00000001

                          AREA ||area_number.64||, LINKORDER=||i._Z15cam_testPatternRKh||, DATA, READONLY, SECTYPE={SHT_ARM_EXIDX}, ALIGN=2

                          EXPORTAS ||area_number.64||, ||.ARM.exidx||
                          DCD      0x00000000
                          RELOC 42, ||i._Z15cam_testPatternRKh||
                          DCD      0x00000001

                          AREA ||area_number.65||, LINKORDER=||i._Z12cam_getFramePhjhtttt||, DATA, READONLY, SECTYPE={SHT_ARM_EXIDX}, ALIGN=2

                          EXPORTAS ||area_number.65||, ||.ARM.exidx||
                          DCD      0x00000000
                          RELOC 42, ||i._Z12cam_getFramePhjhtttt||
                          DCD      0x00000001

                          AREA ||area_number.66||, LINKORDER=||i._Z22cam_getFrameChirpFlagsRKhRKtS2_S2_S2_P5Chirphb||, DATA, READONLY, SECTYPE={SHT_ARM_EXIDX}, ALIGN=2

                          EXPORTAS ||area_number.66||, ||.ARM.exidx||
                          DCD      0x00000000
                          RELOC 42, ||i._Z22cam_getFrameChirpFlagsRKhRKtS2_S2_S2_P5Chirphb||
                          DCD      0x00000001

                          AREA ||area_number.67||, LINKORDER=||i._Z17cam_getFrameChirpRKhRKtS2_S2_S2_P5Chirp||, DATA, READONLY, SECTYPE={SHT_ARM_EXIDX}, ALIGN=2

                          EXPORTAS ||area_number.67||, ||.ARM.exidx||
                          DCD      0x00000000
                          RELOC 42, ||i._Z17cam_getFrameChirpRKhRKtS2_S2_S2_P5Chirp||
                          DCD      0x00000001

                          AREA ||area_number.68||, LINKORDER=||i._Z13cam_sendFrameP5Chirptthj||, DATA, READONLY, SECTYPE={SHT_ARM_EXIDX}, ALIGN=2

                          EXPORTAS ||area_number.68||, ||.ARM.exidx||
                          DCD      0x00000000
                          RELOC 42, ||i._Z13cam_sendFrameP5Chirptthj||
                          DCD      0x00000001

                          AREA ||area_number.69||, LINKORDER=||i._Z11cam_setReg8RKtRKh||, DATA, READONLY, SECTYPE={SHT_ARM_EXIDX}, ALIGN=2

                          EXPORTAS ||area_number.69||, ||.ARM.exidx||
                          DCD      0x00000000
                          RELOC 42, ||i._Z11cam_setReg8RKtRKh||
                          DCD      0x00000001

                          AREA ||area_number.70||, LINKORDER=||i._Z12cam_setReg16RKtS0_||, DATA, READONLY, SECTYPE={SHT_ARM_EXIDX}, ALIGN=2

                          EXPORTAS ||area_number.70||, ||.ARM.exidx||
                          DCD      0x00000000
                          RELOC 42, ||i._Z12cam_setReg16RKtS0_||
                          DCD      0x00000001

                          AREA ||area_number.71||, LINKORDER=||i._Z12cam_setReg32RKtRKj||, DATA, READONLY, SECTYPE={SHT_ARM_EXIDX}, ALIGN=2

                          EXPORTAS ||area_number.71||, ||.ARM.exidx||
                          DCD      0x00000000
                          RELOC 42, ||i._Z12cam_setReg32RKtRKj||
                          DCD      0x00000001

                          AREA ||area_number.72||, LINKORDER=||i._Z11cam_getReg8RKt||, DATA, READONLY, SECTYPE={SHT_ARM_EXIDX}, ALIGN=2

                          EXPORTAS ||area_number.72||, ||.ARM.exidx||
                          DCD      0x00000000
                          RELOC 42, ||i._Z11cam_getReg8RKt||
                          DCD      0x00000001

                          AREA ||area_number.73||, LINKORDER=||i._Z12cam_getReg16RKt||, DATA, READONLY, SECTYPE={SHT_ARM_EXIDX}, ALIGN=2

                          EXPORTAS ||area_number.73||, ||.ARM.exidx||
                          DCD      0x00000000
                          RELOC 42, ||i._Z12cam_getReg16RKt||
                          DCD      0x00000001

                          AREA ||area_number.74||, LINKORDER=||i._Z12cam_getReg32RKt||, DATA, READONLY, SECTYPE={SHT_ARM_EXIDX}, ALIGN=2

                          EXPORTAS ||area_number.74||, ||.ARM.exidx||
                          DCD      0x00000000
                          RELOC 42, ||i._Z12cam_getReg32RKt||
                          DCD      0x00000001

                          AREA ||area_number.75||, LINKORDER=||i._Z18cam_getFramePeriodv||, DATA, READONLY, SECTYPE={SHT_ARM_EXIDX}, ALIGN=2

                          EXPORTAS ||area_number.75||, ||.ARM.exidx||
                          DCD      0x00000000
                          RELOC 42, ||i._Z18cam_getFramePeriodv||
                          DCD      0x00000001

                          AREA ||area_number.76||, LINKORDER=||i._Z10cam_getFPSv||, DATA, READONLY, SECTYPE={SHT_ARM_EXIDX}, ALIGN=2

                          EXPORTAS ||area_number.76||, ||.ARM.exidx||
                          DCD      0x00000000
                          RELOC 42, ||i._Z10cam_getFPSv||
                          DCD      0x00000001

                          AREA ||area_number.77||, LINKORDER=||i._Z16cam_getBlankTimev||, DATA, READONLY, SECTYPE={SHT_ARM_EXIDX}, ALIGN=2

                          EXPORTAS ||area_number.77||, ||.ARM.exidx||
                          DCD      0x00000000
                          RELOC 42, ||i._Z16cam_getBlankTimev||
                          DCD      0x00000001

                          AREA ||area_number.78||, LINKORDER=||i.__sti___10_camera_cpp_g_sccb||, DATA, READONLY, SECTYPE={SHT_ARM_EXIDX}, ALIGN=2

                          EXPORTAS ||area_number.78||, ||.ARM.exidx||
                          DCD      0x00000000
                          RELOC 42, ||i.__sti___10_camera_cpp_g_sccb||
                          DCD      0x00000001

                          AREA ||.constdata||, DATA, READONLY, ALIGN=2

                  g_module
                          DCD      ||.conststring||
                          DCD      _Z11cam_setModeRKh ; cam_setMode(const unsigned char&)
000008  01000000          DCB      0x01,0x00,0x00,0x00
                          DCD      0x00000000
000010  00000000          DCB      0x00,0x00,0x00,0x00
                          DCD      ||.conststring||+0xc
                          DCD      ||.conststring||+0x6c
                          DCD      _Z11cam_getModev ; cam_getMode()
000020  00000000          DCB      0x00,0x00,0x00,0x00
                          DCD      0x00000000
000028  00000000          DCB      0x00,0x00,0x00,0x00
                          DCD      ||.conststring||+0x78
                          DCD      ||.conststring||+0x98
                          DCD      _Z10cam_setAWBRKh ; cam_setAWB(const unsigned char&)
000038  01000000          DCB      0x01,0x00,0x00,0x00
                          DCD      0x00000000
000040  00000000          DCB      0x00,0x00,0x00,0x00
                          DCD      ||.conststring||+0xa4
                          DCD      ||.conststring||+0x114
                          DCD      _Z10cam_getAWBv ; cam_getAWB()
000050  00000000          DCB      0x00,0x00,0x00,0x00
                          DCD      0x00000000
000058  00000000          DCB      0x00,0x00,0x00,0x00
                          DCD      ||.conststring||+0x120
                          DCD      ||.conststring||+0x15c
                          DCD      _Z10cam_setWBVRKj ; cam_setWBV(const unsigned&)
000068  04000000          DCB      0x04,0x00,0x00,0x00
                          DCD      0x00000000
000070  00000000          DCB      0x00,0x00,0x00,0x00
                          DCD      ||.conststring||+0x168
                          DCD      ||.conststring||+0x1c4
                          DCD      _Z10cam_getWBVv ; cam_getWBV()
000080  00000000          DCB      0x00,0x00,0x00,0x00
                          DCD      0x00000000
000088  00000000          DCB      0x00,0x00,0x00,0x00
                          DCD      ||.conststring||+0x1d0
                          DCD      ||.conststring||+0x204
                          DCD      _Z10cam_setAECRKh ; cam_setAEC(const unsigned char&)
000098  01000000          DCB      0x01,0x00,0x00,0x00
                          DCD      0x00000000
0000a0  00000000          DCB      0x00,0x00,0x00,0x00
                          DCD      ||.conststring||+0x210
                          DCD      ||.conststring||+0x27c
                          DCD      _Z10cam_getAECv ; cam_getAEC()
0000b0  00000000          DCB      0x00,0x00,0x00,0x00
                          DCD      0x00000000
0000b8  00000000          DCB      0x00,0x00,0x00,0x00
                          DCD      ||.conststring||+0x288
                          DCD      ||.conststring||+0x2c4
                          DCD      _Z10cam_setECVRKj ; cam_setECV(const unsigned&)
0000c8  04000000          DCB      0x04,0x00,0x00,0x00
                          DCD      0x00000000
0000d0  00000000          DCB      0x00,0x00,0x00,0x00
                          DCD      ||.conststring||+0x2d0
                          DCD      ||.conststring||+0x338
                          DCD      _Z10cam_getECVv ; cam_getECV()
0000e0  00000000          DCB      0x00,0x00,0x00,0x00
                          DCD      0x00000000
0000e8  00000000          DCB      0x00,0x00,0x00,0x00
                          DCD      ||.conststring||+0x344
                          DCD      ||.conststring||+0x388
                          DCD      _Z17cam_setBrightnessRKh ; cam_setBrightness(const unsigned char&)
0000f8  01000000          DCB      0x01,0x00,0x00,0x00
                          DCD      0x00000000
000100  00000000          DCB      0x00,0x00,0x00,0x00
                          DCD      ||.conststring||+0x39c
                          DCD      ||.conststring||+0x43c
                          DCD      _Z17cam_getBrightnessv ; cam_getBrightness()
000110  00000000          DCB      0x00,0x00,0x00,0x00
                          DCD      0x00000000
000118  00000000          DCB      0x00,0x00,0x00,0x00
                          DCD      ||.conststring||+0x450
                          DCD      ||.conststring||+0x478
                          DCD      _Z17cam_setSaturationRKh ; cam_setSaturation(const unsigned char&)
000128  01000000          DCB      0x01,0x00,0x00,0x00
                          DCD      0x00000000
000130  00000000          DCB      0x00,0x00,0x00,0x00
                          DCD      ||.conststring||+0x48c
                          DCD      ||.conststring||+0x4f0
                          DCD      _Z23cam_setFlickerAvoidanceRKh ; cam_setFlickerAvoidance(const unsigned char&)
000140  01000000          DCB      0x01,0x00,0x00,0x00
                          DCD      0x00000000
000148  00000000          DCB      0x00,0x00,0x00,0x00
                          DCD      ||.conststring||+0x508
                          DCD      ||.conststring||+0x43c
                          DCD      _Z17cam_getBrightnessv ; cam_getBrightness()
000158  00000000          DCB      0x00,0x00,0x00,0x00
                          DCD      0x00000000
000160  00000000          DCB      0x00,0x00,0x00,0x00
                          DCD      ||.conststring||+0x450
                          DCD      ||.conststring||+0x564
                          DCD      _Z15cam_testPatternRKh ; cam_testPattern(const unsigned char&)
000170  01000000          DCB      0x01,0x00,0x00,0x00
                          DCD      0x00000000
000178  00000000          DCB      0x00,0x00,0x00,0x00
                          DCD      ||.conststring||+0x574
                          DCD      ||.conststring||+0x5cc
                          DCD      _Z17cam_getFrameChirpRKhRKtS2_S2_S2_P5Chirp ; cam_getFrameChirp(const unsigned char&, const unsigned short&, const unsigned short&, const unsigned short&, const unsigned short&, Chirp*)
000188  01020202          DCB      0x01,0x02,0x02,0x02
00018c  02000000          DCB      0x02,0x00,0x00,0x00
000190  00000000          DCB      0x00,0x00,0x00,0x00
                          DCD      ||.conststring||+0x5dc
                          DCD      ||.conststring||+0x708
                          DCD      _Z11cam_setReg8RKtRKh ; cam_setReg8(const unsigned short&, const unsigned char&)
0001a0  02010000          DCB      0x02,0x01,0x00,0x00
                          DCD      0x00000000
0001a8  00000000          DCB      0x00,0x00,0x00,0x00
                          DCD      ||.conststring||+0x714
                          DCD      ||.conststring||+0x7a8
                          DCD      _Z12cam_setReg16RKtS0_ ; cam_setReg16(const unsigned short&, const unsigned short&)
0001b8  02020000          DCB      0x02,0x02,0x00,0x00
                          DCD      0x00000000
0001c0  00000000          DCB      0x00,0x00,0x00,0x00
                          DCD      ||.conststring||+0x7b8
                          DCD      ||.conststring||+0x84c
                          DCD      _Z12cam_setReg32RKtRKj ; cam_setReg32(const unsigned short&, const unsigned&)
0001d0  02040000          DCB      0x02,0x04,0x00,0x00
                          DCD      0x00000000
0001d8  00000000          DCB      0x00,0x00,0x00,0x00
                          DCD      ||.conststring||+0x85c
                          DCD      ||.conststring||+0x8f0
                          DCD      _Z11cam_getReg8RKt ; cam_getReg8(const unsigned short&)
0001e8  02000000          DCB      0x02,0x00,0x00,0x00
                          DCD      0x00000000
0001f0  00000000          DCB      0x00,0x00,0x00,0x00
                          DCD      ||.conststring||+0x8fc
                          DCD      ||.conststring||+0x95c
                          DCD      _Z12cam_getReg16RKt ; cam_getReg16(const unsigned short&)
000200  02000000          DCB      0x02,0x00,0x00,0x00
                          DCD      0x00000000
000208  00000000          DCB      0x00,0x00,0x00,0x00
                          DCD      ||.conststring||+0x96c
                          DCD      ||.conststring||+0x9cc
                          DCD      _Z12cam_getReg32RKt ; cam_getReg32(const unsigned short&)
000218  02000000          DCB      0x02,0x00,0x00,0x00
                          DCD      0x00000000
000220  00000000          DCB      0x00,0x00,0x00,0x00
                          DCD      ||.conststring||+0x9dc
                          DCD      ||.conststring||+0xa3c
                          DCD      _Z18cam_getFramePeriodv ; cam_getFramePeriod()
000230  00000000          DCB      0x00,0x00,0x00,0x00
                          DCD      0x00000000
000238  00000000          DCB      0x00,0x00,0x00,0x00
                          DCD      ||.conststring||+0xa50
                          DCD      ||.conststring||+0xab4
                          DCD      _Z16cam_getBlankTimev ; cam_getBlankTime()
000248  00000000          DCB      0x00,0x00,0x00,0x00
                          DCD      0x00000000
000250  00000000          DCB      0x00,0x00,0x00,0x00
                          DCD      ||.conststring||+0xac8
                          DCD      0x00000000
                          DCD      0x00000000
                          %        8
000268  00000000          DCB      0x00,0x00,0x00,0x00
                          DCD      0x00000000
                  camAPGAData
000270  0500              DCB      0x05,0x00
000272  3640              DCW      0x3640
                          DCD      0x000002d0
000278  0500              DCB      0x05,0x00
00027a  3642              DCW      0x3642
                          DCD      0x000030e8
000280  0500              DCB      0x05,0x00
000282  3644              DCW      0x3644
                          DCD      0x00000a91
000288  0500              DCB      0x05,0x00
00028a  3646              DCW      0x3646
                          DCD      0x0000b06b
000290  0500              DCB      0x05,0x00
000292  3648              DCW      0x3648
                          DCD      0x00000271
000298  0500              DCB      0x05,0x00
00029a  364a              DCW      0x364a
                          DCD      0x000000b0
0002a0  0500              DCB      0x05,0x00
0002a2  364c              DCW      0x364c
                          DCD      0x0000ef4a
0002a8  0500              DCB      0x05,0x00
0002aa  364e              DCW      0x364e
                          DCD      0x00003651
0002b0  0500              DCB      0x05,0x00
0002b2  3650              DCW      0x3650
                          DCD      0x0000e48b
0002b8  0500              DCB      0x05,0x00
0002ba  3652              DCW      0x3652
                          DCD      0x00001331
0002c0  0500              DCB      0x05,0x00
0002c2  3654              DCW      0x3654
                          DCD      0x00000150
0002c8  0500              DCB      0x05,0x00
0002ca  3656              DCW      0x3656
                          DCD      0x0000202c
0002d0  0500              DCB      0x05,0x00
0002d2  3658              DCW      0x3658
                          DCD      0x000002f1
0002d8  0500              DCB      0x05,0x00
0002da  365a              DCW      0x365a
                          DCD      0x0000904e
0002e0  0500              DCB      0x05,0x00
0002e2  365c              DCW      0x365c
                          DCD      0x00007310
0002e8  0500              DCB      0x05,0x00
0002ea  365e              DCW      0x365e
                          DCD      0x000000f0
0002f0  0500              DCB      0x05,0x00
0002f2  3660              DCW      0x3660
                          DCD      0x0000966a
0002f8  0500              DCB      0x05,0x00
0002fa  3662              DCW      0x3662
                          DCD      0x00001691
000300  0500              DCB      0x05,0x00
000302  3664              DCW      0x3664
                          DCD      0x00000feb
000308  0500              DCB      0x05,0x00
00030a  3666              DCW      0x3666
                          DCD      0x00003db0
000310  0500              DCB      0x05,0x00
000312  3680              DCW      0x3680
                          DCD      0x000014cb
000318  0500              DCB      0x05,0x00
00031a  3682              DCW      0x3682
                          DCD      0x0000b90d
000320  0500              DCB      0x05,0x00
000322  3684              DCW      0x3684
                          DCD      0x0000e8cf
000328  0500              DCB      0x05,0x00
00032a  3686              DCW      0x3686
                          DCD      0x00000a2f
000330  0500              DCB      0x05,0x00
000332  3688              DCW      0x3688
                          DCD      0x00007090
000338  0500              DCB      0x05,0x00
00033a  368a              DCW      0x368a
                          DCD      0x00000d2b
000340  0500              DCB      0x05,0x00
000342  368c              DCW      0x368c
                          DCD      0x0000e7cc
000348  0500              DCB      0x05,0x00
00034a  368e              DCW      0x368e
                          DCD      0x0000ec2f
000350  0500              DCB      0x05,0x00
000352  3690              DCW      0x3690
                          DCD      0x000001cf
000358  0500              DCB      0x05,0x00
00035a  3692              DCW      0x3692
                          DCD      0x00004b10
000360  0500              DCB      0x05,0x00
000362  3694              DCW      0x3694
                          DCD      0x0000590c
000368  0500              DCB      0x05,0x00
00036a  3696              DCW      0x3696
                          DCD      0x0000da6c
000370  0500              DCB      0x05,0x00
000372  3698              DCW      0x3698
                          DCD      0x00008470
000378  0500              DCB      0x05,0x00
00037a  369a              DCW      0x369a
                          DCD      0x0000144b
000380  0500              DCB      0x05,0x00
000382  369c              DCW      0x369c
                          DCD      0x000003d0
000388  0500              DCB      0x05,0x00
00038a  369e              DCW      0x369e
                          DCD      0x00004dec
000390  0500              DCB      0x05,0x00
000392  36a0              DCW      0x36a0
                          DCD      0x0000a00d
000398  0500              DCB      0x05,0x00
00039a  36a2              DCW      0x36a2
                          DCD      0x0000b030
0003a0  0500              DCB      0x05,0x00
0003a2  36a4              DCW      0x36a4
                          DCD      0x0000262e
0003a8  0500              DCB      0x05,0x00
0003aa  36a6              DCW      0x36a6
                          DCD      0x00001a70
0003b0  0500              DCB      0x05,0x00
0003b2  36c0              DCW      0x36c0
                          DCD      0x00002a31
0003b8  0500              DCB      0x05,0x00
0003ba  36c2              DCW      0x36c2
                          DCD      0x000042c8
0003c0  0500              DCB      0x05,0x00
0003c2  36c4              DCW      0x36c4
                          DCD      0x000047b2
0003c8  0500              DCB      0x05,0x00
0003ca  36c6              DCW      0x36c6
                          DCD      0x00003011
0003d0  0500              DCB      0x05,0x00
0003d2  36c8              DCW      0x36c8
                          DCD      0x0000ef12
0003d8  0500              DCB      0x05,0x00
0003da  36ca              DCW      0x36ca
                          DCD      0x00004611
0003e0  0500              DCB      0x05,0x00
0003e2  36cc              DCW      0x36cc
                          DCD      0x00007b4d
0003e8  0500              DCB      0x05,0x00
0003ea  36ce              DCW      0x36ce
                          DCD      0x00002973
0003f0  0500              DCB      0x05,0x00
0003f2  36d0              DCW      0x36d0
                          DCD      0x000073f0
0003f8  0500              DCB      0x05,0x00
0003fa  36d2              DCW      0x36d2
                          DCD      0x0000f1b3
000400  0500              DCB      0x05,0x00
000402  36d4              DCW      0x36d4
                          DCD      0x00001951
000408  0500              DCB      0x05,0x00
00040a  36d6              DCW      0x36d6
                          DCD      0x00001c4e
000410  0500              DCB      0x05,0x00
000412  36d8              DCW      0x36d8
                          DCD      0x000051b2
000418  0500              DCB      0x05,0x00
00041a  36da              DCW      0x36da
                          DCD      0x00004250
000420  0500              DCB      0x05,0x00
000422  36dc              DCW      0x36dc
                          DCD      0x000093b3
000428  0500              DCB      0x05,0x00
00042a  36de              DCW      0x36de
                          DCD      0x00002711
000430  0500              DCB      0x05,0x00
000432  36e0              DCW      0x36e0
                          DCD      0x0000366c
000438  0500              DCB      0x05,0x00
00043a  36e2              DCW      0x36e2
                          DCD      0x00002b12
000440  0500              DCB      0x05,0x00
000442  36e4              DCW      0x36e4
                          DCD      0x00001111
000448  0500              DCB      0x05,0x00
00044a  36e6              DCW      0x36e6
                          DCD      0x0000cd12
000450  0500              DCB      0x05,0x00
000452  3700              DCW      0x3700
                          DCD      0x0000a4ef
000458  0500              DCB      0x05,0x00
00045a  3702              DCW      0x3702
                          DCD      0x0000a16e
000460  0500              DCB      0x05,0x00
000462  3704              DCW      0x3704
                          DCD      0x00001c8c
000468  0500              DCB      0x05,0x00
00046a  3706              DCW      0x3706
                          DCD      0x000003ee
000470  0500              DCB      0x05,0x00
000472  3708              DCW      0x3708
                          DCD      0x0000c472
000478  0500              DCB      0x05,0x00
00047a  370a              DCW      0x370a
                          DCD      0x0000fbee
000480  0500              DCB      0x05,0x00
000482  370c              DCW      0x370c
                          DCD      0x0000a62f
000488  0500              DCB      0x05,0x00
00048a  370e              DCW      0x370e
                          DCD      0x000082d1
000490  0500              DCB      0x05,0x00
000492  3710              DCW      0x3710
                          DCD      0x000006ce
000498  0500              DCB      0x05,0x00
00049a  3712              DCW      0x3712
                          DCD      0x0000e32f
0004a0  0500              DCB      0x05,0x00
0004a2  3714              DCW      0x3714
                          DCD      0x0000c42b
0004a8  0500              DCB      0x05,0x00
0004aa  3716              DCW      0x3716
                          DCD      0x00008d2e
0004b0  0500              DCB      0x05,0x00
0004b2  3718              DCW      0x3718
                          DCD      0x00008891
0004b8  0500              DCB      0x05,0x00
0004ba  371a              DCW      0x371a
                          DCD      0x00005daf
0004c0  0500              DCB      0x05,0x00
0004c2  371c              DCW      0x371c
                          DCD      0x000076ee
0004c8  0500              DCB      0x05,0x00
0004ca  371e              DCW      0x371e
                          DCD      0x000082ef
0004d0  0500              DCB      0x05,0x00
0004d2  3720              DCW      0x3720
                          DCD      0x000045ed
0004d8  0500              DCB      0x05,0x00
0004da  3722              DCW      0x3722
                          DCD      0x0000abd1
0004e0  0500              DCB      0x05,0x00
0004e2  3724              DCW      0x3724
                          DCD      0x0000ffcf
0004e8  0500              DCB      0x05,0x00
0004ea  3726              DCW      0x3726
                          DCD      0x0000836f
0004f0  0500              DCB      0x05,0x00
0004f2  3740              DCW      0x3740
                          DCD      0x00007ed0
0004f8  0500              DCB      0x05,0x00
0004fa  3742              DCW      0x3742
                          DCD      0x00002451
000500  0500              DCB      0x05,0x00
000502  3744              DCW      0x3744
                          DCD      0x0000bccf
000508  0500              DCB      0x05,0x00
00050a  3746              DCW      0x3746
                          DCD      0x0000d171
000510  0500              DCB      0x05,0x00
000512  3748              DCW      0x3748
                          DCD      0x00008934
000518  0500              DCB      0x05,0x00
00051a  374a              DCW      0x374a
                          DCD      0x000052b1
000520  0500              DCB      0x05,0x00
000522  374c              DCW      0x374c
                          DCD      0x00001d90
000528  0500              DCB      0x05,0x00
00052a  374e              DCW      0x374e
                          DCD      0x0000fcb2
000530  0500              DCB      0x05,0x00
000532  3750              DCW      0x3750
                          DCD      0x000061ef
000538  0500              DCB      0x05,0x00
00053a  3752              DCW      0x3752
                          DCD      0x0000ee73
000540  0500              DCB      0x05,0x00
000542  3754              DCW      0x3754
                          DCD      0x000027d1
000548  0500              DCB      0x05,0x00
00054a  3756              DCW      0x3756
                          DCD      0x000006ae
000550  0500              DCB      0x05,0x00
000552  3758              DCW      0x3758
                          DCD      0x0000f011
000558  0500              DCB      0x05,0x00
00055a  375a              DCW      0x375a
                          DCD      0x000055ef
000560  0500              DCB      0x05,0x00
000562  375c              DCW      0x375c
                          DCD      0x0000f112
000568  0500              DCB      0x05,0x00
00056a  375e              DCW      0x375e
                          DCD      0x00000851
000570  0500              DCB      0x05,0x00
000572  3760              DCW      0x3760
                          DCD      0x00002251
000578  0500              DCB      0x05,0x00
00057a  3762              DCW      0x3762
                          DCD      0x000013b2
000580  0500              DCB      0x05,0x00
000582  3764              DCW      0x3764
                          DCD      0x0000f410
000588  0500              DCB      0x05,0x00
00058a  3766              DCW      0x3766
                          DCD      0x0000bdb4
000590  0500              DCB      0x05,0x00
000592  3784              DCW      0x3784
                          DCD      0x00000286
000598  0500              DCB      0x05,0x00
00059a  3782              DCW      0x3782
                          DCD      0x000001ce
0005a0  0500              DCB      0x05,0x00
0005a2  37c0              DCW      0x37c0
                          DCD      0x00007ca6
0005a8  0500              DCB      0x05,0x00
0005aa  37c2              DCW      0x37c2
                          DCD      0x00002ea9
0005b0  0500              DCB      0x05,0x00
0005b2  37c4              DCW      0x37c4
                          DCD      0x000044e8
0005b8  0500              DCB      0x05,0x00
0005ba  37c6              DCW      0x37c6
                          DCD      0x00003cc8
0005c0  0500              DCB      0x05,0x00
0005c2  098e              DCW      0x098e
                          DCD      0x00000000
0005c8  0500              DCB      0x05,0x00
0005ca  c960              DCW      0xc960
                          DCD      0x00000bb8
0005d0  0500              DCB      0x05,0x00
0005d2  c962              DCW      0xc962
                          DCD      0x00007ee1
0005d8  0500              DCB      0x05,0x00
0005da  c964              DCW      0xc964
                          DCD      0x00007fdc
0005e0  0500              DCB      0x05,0x00
0005e2  c966              DCW      0xc966
                          DCD      0x00007ebc
0005e8  0500              DCB      0x05,0x00
0005ea  c968              DCW      0xc968
                          DCD      0x00007fe1
0005f0  0500              DCB      0x05,0x00
0005f2  c96a              DCW      0xc96a
                          DCD      0x0000109a
0005f8  0500              DCB      0x05,0x00
0005fa  c96c              DCW      0xc96c
                          DCD      0x00008020
000600  0500              DCB      0x05,0x00
000602  c96e              DCW      0xc96e
                          DCD      0x000080af
000608  0500              DCB      0x05,0x00
00060a  c970              DCW      0xc970
                          DCD      0x0000805e
000610  0500              DCB      0x05,0x00
000612  c972              DCW      0xc972
                          DCD      0x00008062
000618  0500              DCB      0x05,0x00
00061a  c974              DCW      0xc974
                          DCD      0x00001d4c
000620  0500              DCB      0x05,0x00
000622  c976              DCW      0xc976
                          DCD      0x000082c9
000628  0500              DCB      0x05,0x00
00062a  c978              DCW      0xc978
                          DCD      0x000085b7
000630  0500              DCB      0x05,0x00
000632  c97a              DCW      0xc97a
                          DCD      0x00008340
000638  0500              DCB      0x05,0x00
00063a  c97c              DCW      0xc97c
                          DCD      0x000082fb
000640  0500              DCB      0x05,0x00
000642  c95e              DCW      0xc95e
                          DCD      0x00000003
                  camInitData
000648  0500              DCB      0x05,0x00
00064a  098e              DCW      0x098e
                          DCD      0x00001000
000650  0400              DCB      0x04,0x00
000652  c97e              DCW      0xc97e
                          DCD      0x00000001
000658  0500              DCB      0x05,0x00
00065a  c980              DCW      0xc980
                          DCD      0x00000230
000660  0500              DCB      0x05,0x00
000662  c982              DCW      0xc982
                          DCD      0x00000700
000668  0100              DCB      0x01,0x00
00066a  1388              DCW      0x1388
                          DCD      0x00000000
000670  0700              DCB      0x07,0x00
000672  013c              DCW      0x013c
                          DCD      0x000000d0
000678  0500              DCB      0x05,0x00
00067a  316a              DCW      0x316a
                          DCD      0x00008270
000680  0500              DCB      0x05,0x00
000682  316c              DCW      0x316c
                          DCD      0x00008270
000688  0500              DCB      0x05,0x00
00068a  3ed0              DCW      0x3ed0
                          DCD      0x00002305
000690  0500              DCB      0x05,0x00
000692  3ed2              DCW      0x3ed2
                          DCD      0x000077cf
000698  0500              DCB      0x05,0x00
00069a  316e              DCW      0x316e
                          DCD      0x00008202
0006a0  0500              DCB      0x05,0x00
0006a2  3180              DCW      0x3180
                          DCD      0x000087ff
0006a8  0500              DCB      0x05,0x00
0006aa  30d4              DCW      0x30d4
                          DCD      0x00006080
0006b0  0500              DCB      0x05,0x00
0006b2  a802              DCW      0xa802
                          DCD      0x00000008
0006b8  0500              DCB      0x05,0x00
0006ba  3e14              DCW      0x3e14
                          DCD      0x0000ff39
0006c0  0500              DCB      0x05,0x00
0006c2  0982              DCW      0x0982
                          DCD      0x00000001
0006c8  0500              DCB      0x05,0x00
0006ca  098a              DCW      0x098a
                          DCD      0x00005000
0006d0  0500              DCB      0x05,0x00
0006d2  d000              DCW      0xd000
                          DCD      0x000070cf
0006d8  0500              DCB      0x05,0x00
0006da  d002              DCW      0xd002
                          DCD      0x0000ffff
0006e0  0500              DCB      0x05,0x00
0006e2  d004              DCW      0xd004
                          DCD      0x0000c5d4
0006e8  0500              DCB      0x05,0x00
0006ea  d006              DCW      0xd006
                          DCD      0x0000903a
0006f0  0500              DCB      0x05,0x00
0006f2  d008              DCW      0xd008
                          DCD      0x00002144
0006f8  0500              DCB      0x05,0x00
0006fa  d00a              DCW      0xd00a
                          DCD      0x00000c00
000700  0500              DCB      0x05,0x00
000702  d00c              DCW      0xd00c
                          DCD      0x00002186
000708  0500              DCB      0x05,0x00
00070a  d00e              DCW      0xd00e
                          DCD      0x00000ff3
000710  0500              DCB      0x05,0x00
000712  d010              DCW      0xd010
                          DCD      0x0000b844
000718  0500              DCB      0x05,0x00
00071a  d012              DCW      0xd012
                          DCD      0x0000b948
000720  0500              DCB      0x05,0x00
000722  d014              DCW      0xd014
                          DCD      0x0000e082
000728  0500              DCB      0x05,0x00
00072a  d016              DCW      0xd016
                          DCD      0x000020cc
000730  0500              DCB      0x05,0x00
000732  d018              DCW      0xd018
                          DCD      0x000080e2
000738  0500              DCB      0x05,0x00
00073a  d01a              DCW      0xd01a
                          DCD      0x000021cc
000740  0500              DCB      0x05,0x00
000742  d01c              DCW      0xd01c
                          DCD      0x000080a2
000748  0500              DCB      0x05,0x00
00074a  d01e              DCW      0xd01e
                          DCD      0x000021cc
000750  0500              DCB      0x05,0x00
000752  d020              DCW      0xd020
                          DCD      0x000080e2
000758  0500              DCB      0x05,0x00
00075a  d022              DCW      0xd022
                          DCD      0x0000f404
000760  0500              DCB      0x05,0x00
000762  d024              DCW      0xd024
                          DCD      0x0000d801
000768  0500              DCB      0x05,0x00
00076a  d026              DCW      0xd026
                          DCD      0x0000f003
000770  0500              DCB      0x05,0x00
000772  d028              DCW      0xd028
                          DCD      0x0000d800
000778  0500              DCB      0x05,0x00
00077a  d02a              DCW      0xd02a
                          DCD      0x00007ee0
000780  0500              DCB      0x05,0x00
000782  d02c              DCW      0xd02c
                          DCD      0x0000c0f1
000788  0500              DCB      0x05,0x00
00078a  d02e              DCW      0xd02e
                          DCD      0x000008ba
000790  0500              DCB      0x05,0x00
000792  d030              DCW      0xd030
                          DCD      0x00000600
000798  0500              DCB      0x05,0x00
00079a  d032              DCW      0xd032
                          DCD      0x0000c1a1
0007a0  0500              DCB      0x05,0x00
0007a2  d034              DCW      0xd034
                          DCD      0x000076cf
0007a8  0500              DCB      0x05,0x00
0007aa  d036              DCW      0xd036
                          DCD      0x0000ffff
0007b0  0500              DCB      0x05,0x00
0007b2  d038              DCW      0xd038
                          DCD      0x0000c130
0007b8  0500              DCB      0x05,0x00
0007ba  d03a              DCW      0xd03a
                          DCD      0x00006e04
0007c0  0500              DCB      0x05,0x00
0007c2  d03c              DCW      0xd03c
                          DCD      0x0000c040
0007c8  0500              DCB      0x05,0x00
0007ca  d03e              DCW      0xd03e
                          DCD      0x000071cf
0007d0  0500              DCB      0x05,0x00
0007d2  d040              DCW      0xd040
                          DCD      0x0000ffff
0007d8  0500              DCB      0x05,0x00
0007da  d042              DCW      0xd042
                          DCD      0x0000c790
0007e0  0500              DCB      0x05,0x00
0007e2  d044              DCW      0xd044
                          DCD      0x00008103
0007e8  0500              DCB      0x05,0x00
0007ea  d046              DCW      0xd046
                          DCD      0x000077cf
0007f0  0500              DCB      0x05,0x00
0007f2  d048              DCW      0xd048
                          DCD      0x0000ffff
0007f8  0500              DCB      0x05,0x00
0007fa  d04a              DCW      0xd04a
                          DCD      0x0000c7c0
000800  0500              DCB      0x05,0x00
000802  d04c              DCW      0xd04c
                          DCD      0x0000e001
000808  0500              DCB      0x05,0x00
00080a  d04e              DCW      0xd04e
                          DCD      0x0000a103
000810  0500              DCB      0x05,0x00
000812  d050              DCW      0xd050
                          DCD      0x0000d800
000818  0500              DCB      0x05,0x00
00081a  d052              DCW      0xd052
                          DCD      0x00000c6a
000820  0500              DCB      0x05,0x00
000822  d054              DCW      0xd054
                          DCD      0x000004e0
000828  0500              DCB      0x05,0x00
00082a  d056              DCW      0xd056
                          DCD      0x0000b89e
000830  0500              DCB      0x05,0x00
000832  d058              DCW      0xd058
                          DCD      0x00007508
000838  0500              DCB      0x05,0x00
00083a  d05a              DCW      0xd05a
                          DCD      0x00008e1c
000840  0500              DCB      0x05,0x00
000842  d05c              DCW      0xd05c
                          DCD      0x00000809
000848  0500              DCB      0x05,0x00
00084a  d05e              DCW      0xd05e
                          DCD      0x00000191
000850  0500              DCB      0x05,0x00
000852  d060              DCW      0xd060
                          DCD      0x0000d801
000858  0500              DCB      0x05,0x00
00085a  d062              DCW      0xd062
                          DCD      0x0000ae1d
000860  0500              DCB      0x05,0x00
000862  d064              DCW      0xd064
                          DCD      0x0000e580
000868  0500              DCB      0x05,0x00
00086a  d066              DCW      0xd066
                          DCD      0x000020ca
000870  0500              DCB      0x05,0x00
000872  d068              DCW      0xd068
                          DCD      0x00000022
000878  0500              DCB      0x05,0x00
00087a  d06a              DCW      0xd06a
                          DCD      0x000020cf
000880  0500              DCB      0x05,0x00
000882  d06c              DCW      0xd06c
                          DCD      0x00000522
000888  0500              DCB      0x05,0x00
00088a  d06e              DCW      0xd06e
                          DCD      0x00000c5c
000890  0500              DCB      0x05,0x00
000892  d070              DCW      0xd070
                          DCD      0x000004e2
000898  0500              DCB      0x05,0x00
00089a  d072              DCW      0xd072
                          DCD      0x000021ca
0008a0  0500              DCB      0x05,0x00
0008a2  d074              DCW      0xd074
                          DCD      0x00000062
0008a8  0500              DCB      0x05,0x00
0008aa  d076              DCW      0xd076
                          DCD      0x0000e580
0008b0  0500              DCB      0x05,0x00
0008b2  d078              DCW      0xd078
                          DCD      0x0000d901
0008b8  0500              DCB      0x05,0x00
0008ba  d07a              DCW      0xd07a
                          DCD      0x000079c0
0008c0  0500              DCB      0x05,0x00
0008c2  d07c              DCW      0xd07c
                          DCD      0x0000d800
0008c8  0500              DCB      0x05,0x00
0008ca  d07e              DCW      0xd07e
                          DCD      0x00000be6
0008d0  0500              DCB      0x05,0x00
0008d2  d080              DCW      0xd080
                          DCD      0x000004e0
0008d8  0500              DCB      0x05,0x00
0008da  d082              DCW      0xd082
                          DCD      0x0000b89e
0008e0  0500              DCB      0x05,0x00
0008e2  d084              DCW      0xd084
                          DCD      0x000070cf
0008e8  0500              DCB      0x05,0x00
0008ea  d086              DCW      0xd086
                          DCD      0x0000ffff
0008f0  0500              DCB      0x05,0x00
0008f2  d088              DCW      0xd088
                          DCD      0x0000c8d4
0008f8  0500              DCB      0x05,0x00
0008fa  d08a              DCW      0xd08a
                          DCD      0x00009002
000900  0500              DCB      0x05,0x00
000902  d08c              DCW      0xd08c
                          DCD      0x00000857
000908  0500              DCB      0x05,0x00
00090a  d08e              DCW      0xd08e
                          DCD      0x0000025e
000910  0500              DCB      0x05,0x00
000912  d090              DCW      0xd090
                          DCD      0x0000ffdc
000918  0500              DCB      0x05,0x00
00091a  d092              DCW      0xd092
                          DCD      0x0000e080
000920  0500              DCB      0x05,0x00
000922  d094              DCW      0xd094
                          DCD      0x000025cc
000928  0500              DCB      0x05,0x00
00092a  d096              DCW      0xd096
                          DCD      0x00009022
000930  0500              DCB      0x05,0x00
000932  d098              DCW      0xd098
                          DCD      0x0000f225
000938  0500              DCB      0x05,0x00
00093a  d09a              DCW      0xd09a
                          DCD      0x00001700
000940  0500              DCB      0x05,0x00
000942  d09c              DCW      0xd09c
                          DCD      0x0000108a
000948  0500              DCB      0x05,0x00
00094a  d09e              DCW      0xd09e
                          DCD      0x000073cf
000950  0500              DCB      0x05,0x00
000952  d0a0              DCW      0xd0a0
                          DCD      0x0000ff00
000958  0500              DCB      0x05,0x00
00095a  d0a2              DCW      0xd0a2
                          DCD      0x00003174
000960  0500              DCB      0x05,0x00
000962  d0a4              DCW      0xd0a4
                          DCD      0x00009307
000968  0500              DCB      0x05,0x00
00096a  d0a6              DCW      0xd0a6
                          DCD      0x00002a04
000970  0500              DCB      0x05,0x00
000972  d0a8              DCW      0xd0a8
                          DCD      0x0000103e
000978  0500              DCB      0x05,0x00
00097a  d0aa              DCW      0xd0aa
                          DCD      0x00009328
000980  0500              DCB      0x05,0x00
000982  d0ac              DCW      0xd0ac
                          DCD      0x00002942
000988  0500              DCB      0x05,0x00
00098a  d0ae              DCW      0xd0ae
                          DCD      0x00007140
000990  0500              DCB      0x05,0x00
000992  d0b0              DCW      0xd0b0
                          DCD      0x00002a04
000998  0500              DCB      0x05,0x00
00099a  d0b2              DCW      0xd0b2
                          DCD      0x0000107e
0009a0  0500              DCB      0x05,0x00
0009a2  d0b4              DCW      0xd0b4
                          DCD      0x00009349
0009a8  0500              DCB      0x05,0x00
0009aa  d0b6              DCW      0xd0b6
                          DCD      0x00002942
0009b0  0500              DCB      0x05,0x00
0009b2  d0b8              DCW      0xd0b8
                          DCD      0x00007141
0009b8  0500              DCB      0x05,0x00
0009ba  d0ba              DCW      0xd0ba
                          DCD      0x00002a04
0009c0  0500              DCB      0x05,0x00
0009c2  d0bc              DCW      0xd0bc
                          DCD      0x000010be
0009c8  0500              DCB      0x05,0x00
0009ca  d0be              DCW      0xd0be
                          DCD      0x0000934a
0009d0  0500              DCB      0x05,0x00
0009d2  d0c0              DCW      0xd0c0
                          DCD      0x00002942
0009d8  0500              DCB      0x05,0x00
0009da  d0c2              DCW      0xd0c2
                          DCD      0x0000714b
0009e0  0500              DCB      0x05,0x00
0009e2  d0c4              DCW      0xd0c4
                          DCD      0x00002a04
0009e8  0500              DCB      0x05,0x00
0009ea  d0c6              DCW      0xd0c6
                          DCD      0x000010be
0009f0  0500              DCB      0x05,0x00
0009f2  d0c8              DCW      0xd0c8
                          DCD      0x0000130c
0009f8  0500              DCB      0x05,0x00
0009fa  d0ca              DCW      0xd0ca
                          DCD      0x0000010a
000a00  0500              DCB      0x05,0x00
000a02  d0cc              DCW      0xd0cc
                          DCD      0x00002942
000a08  0500              DCB      0x05,0x00
000a0a  d0ce              DCW      0xd0ce
                          DCD      0x00007142
000a10  0500              DCB      0x05,0x00
000a12  d0d0              DCW      0xd0d0
                          DCD      0x00002250
000a18  0500              DCB      0x05,0x00
000a1a  d0d2              DCW      0xd0d2
                          DCD      0x000013ca
000a20  0500              DCB      0x05,0x00
000a22  d0d4              DCW      0xd0d4
                          DCD      0x00001b0c
000a28  0500              DCB      0x05,0x00
000a2a  d0d6              DCW      0xd0d6
                          DCD      0x00000284
000a30  0500              DCB      0x05,0x00
000a32  d0d8              DCW      0xd0d8
                          DCD      0x0000b307
000a38  0500              DCB      0x05,0x00
000a3a  d0da              DCW      0xd0da
                          DCD      0x0000b328
000a40  0500              DCB      0x05,0x00
000a42  d0dc              DCW      0xd0dc
                          DCD      0x00001b12
000a48  0500              DCB      0x05,0x00
000a4a  d0de              DCW      0xd0de
                          DCD      0x000002c4
000a50  0500              DCB      0x05,0x00
000a52  d0e0              DCW      0xd0e0
                          DCD      0x0000b34a
000a58  0500              DCB      0x05,0x00
000a5a  d0e2              DCW      0xd0e2
                          DCD      0x0000ed88
000a60  0500              DCB      0x05,0x00
000a62  d0e4              DCW      0xd0e4
                          DCD      0x000071cf
000a68  0500              DCB      0x05,0x00
000a6a  d0e6              DCW      0xd0e6
                          DCD      0x0000ff00
000a70  0500              DCB      0x05,0x00
000a72  d0e8              DCW      0xd0e8
                          DCD      0x00003174
000a78  0500              DCB      0x05,0x00
000a7a  d0ea              DCW      0xd0ea
                          DCD      0x00009106
000a80  0500              DCB      0x05,0x00
000a82  d0ec              DCW      0xd0ec
                          DCD      0x0000b88f
000a88  0500              DCB      0x05,0x00
000a8a  d0ee              DCW      0xd0ee
                          DCD      0x0000b106
000a90  0500              DCB      0x05,0x00
000a92  d0f0              DCW      0xd0f0
                          DCD      0x0000210a
000a98  0500              DCB      0x05,0x00
000a9a  d0f2              DCW      0xd0f2
                          DCD      0x00008340
000aa0  0500              DCB      0x05,0x00
000aa2  d0f4              DCW      0xd0f4
                          DCD      0x0000c000
000aa8  0500              DCB      0x05,0x00
000aaa  d0f6              DCW      0xd0f6
                          DCD      0x000021ca
000ab0  0500              DCB      0x05,0x00
000ab2  d0f8              DCW      0xd0f8
                          DCD      0x00000062
000ab8  0500              DCB      0x05,0x00
000aba  d0fa              DCW      0xd0fa
                          DCD      0x000020f0
000ac0  0500              DCB      0x05,0x00
000ac2  d0fc              DCW      0xd0fc
                          DCD      0x00000040
000ac8  0500              DCB      0x05,0x00
000aca  d0fe              DCW      0xd0fe
                          DCD      0x00000b02
000ad0  0500              DCB      0x05,0x00
000ad2  d100              DCW      0xd100
                          DCD      0x00000320
000ad8  0500              DCB      0x05,0x00
000ada  d102              DCW      0xd102
                          DCD      0x0000d901
000ae0  0500              DCB      0x05,0x00
000ae2  d104              DCW      0xd104
                          DCD      0x000007f1
000ae8  0500              DCB      0x05,0x00
000aea  d106              DCW      0xd106
                          DCD      0x000005e0
000af0  0500              DCB      0x05,0x00
000af2  d108              DCW      0xd108
                          DCD      0x0000c0a1
000af8  0500              DCB      0x05,0x00
000afa  d10a              DCW      0xd10a
                          DCD      0x000078e0
000b00  0500              DCB      0x05,0x00
000b02  d10c              DCW      0xd10c
                          DCD      0x0000c0f1
000b08  0500              DCB      0x05,0x00
000b0a  d10e              DCW      0xd10e
                          DCD      0x000071cf
000b10  0500              DCB      0x05,0x00
000b12  d110              DCW      0xd110
                          DCD      0x0000ffff
000b18  0500              DCB      0x05,0x00
000b1a  d112              DCW      0xd112
                          DCD      0x0000c7c0
000b20  0500              DCB      0x05,0x00
000b22  d114              DCW      0xd114
                          DCD      0x0000d840
000b28  0500              DCB      0x05,0x00
000b2a  d116              DCW      0xd116
                          DCD      0x0000a900
000b30  0500              DCB      0x05,0x00
000b32  d118              DCW      0xd118
                          DCD      0x000071cf
000b38  0500              DCB      0x05,0x00
000b3a  d11a              DCW      0xd11a
                          DCD      0x0000ffff
000b40  0500              DCB      0x05,0x00
000b42  d11c              DCW      0xd11c
                          DCD      0x0000d02c
000b48  0500              DCB      0x05,0x00
000b4a  d11e              DCW      0xd11e
                          DCD      0x0000d81e
000b50  0500              DCB      0x05,0x00
000b52  d120              DCW      0xd120
                          DCD      0x00000a5a
000b58  0500              DCB      0x05,0x00
000b5a  d122              DCW      0xd122
                          DCD      0x000004e0
000b60  0500              DCB      0x05,0x00
000b62  d124              DCW      0xd124
                          DCD      0x0000da00
000b68  0500              DCB      0x05,0x00
000b6a  d126              DCW      0xd126
                          DCD      0x0000d800
000b70  0500              DCB      0x05,0x00
000b72  d128              DCW      0xd128
                          DCD      0x0000c0d1
000b78  0500              DCB      0x05,0x00
000b7a  d12a              DCW      0xd12a
                          DCD      0x00007ee0
000b80  0500              DCB      0x05,0x00
000b82  098e              DCW      0x098e
                          DCD      0x00000000
000b88  0500              DCB      0x05,0x00
000b8a  e000              DCW      0xe000
                          DCD      0x0000010c
000b90  0500              DCB      0x05,0x00
000b92  e002              DCW      0xe002
                          DCD      0x00000202
000b98  0600              DCB      0x06,0x00
000b9a  e004              DCW      0xe004
                          DCD      0x41030202
000ba0  0300              DCB      0x03,0x00
000ba2  0000              DCW      0x0000
                          DCD      0x00000000
000ba8  0500              DCB      0x05,0x00
000baa  0982              DCW      0x0982
                          DCD      0x00000001
000bb0  0500              DCB      0x05,0x00
000bb2  098a              DCW      0x098a
                          DCD      0x0000512c
000bb8  0500              DCB      0x05,0x00
000bba  d12c              DCW      0xd12c
                          DCD      0x000070cf
000bc0  0500              DCB      0x05,0x00
000bc2  d12e              DCW      0xd12e
                          DCD      0x0000ffff
000bc8  0500              DCB      0x05,0x00
000bca  d130              DCW      0xd130
                          DCD      0x0000c5d4
000bd0  0500              DCB      0x05,0x00
000bd2  d132              DCW      0xd132
                          DCD      0x0000903a
000bd8  0500              DCB      0x05,0x00
000bda  d134              DCW      0xd134
                          DCD      0x00002144
000be0  0500              DCB      0x05,0x00
000be2  d136              DCW      0xd136
                          DCD      0x00000c00
000be8  0500              DCB      0x05,0x00
000bea  d138              DCW      0xd138
                          DCD      0x00002186
000bf0  0500              DCB      0x05,0x00
000bf2  d13a              DCW      0xd13a
                          DCD      0x00000ff3
000bf8  0500              DCB      0x05,0x00
000bfa  d13c              DCW      0xd13c
                          DCD      0x0000b844
000c00  0500              DCB      0x05,0x00
000c02  d13e              DCW      0xd13e
                          DCD      0x0000262f
000c08  0500              DCB      0x05,0x00
000c0a  d140              DCW      0xd140
                          DCD      0x0000f008
000c10  0500              DCB      0x05,0x00
000c12  d142              DCW      0xd142
                          DCD      0x0000b948
000c18  0500              DCB      0x05,0x00
000c1a  d144              DCW      0xd144
                          DCD      0x000021cc
000c20  0500              DCB      0x05,0x00
000c22  d146              DCW      0xd146
                          DCD      0x00008021
000c28  0500              DCB      0x05,0x00
000c2a  d148              DCW      0xd148
                          DCD      0x0000d801
000c30  0500              DCB      0x05,0x00
000c32  d14a              DCW      0xd14a
                          DCD      0x0000f203
000c38  0500              DCB      0x05,0x00
000c3a  d14c              DCW      0xd14c
                          DCD      0x0000d800
000c40  0500              DCB      0x05,0x00
000c42  d14e              DCW      0xd14e
                          DCD      0x00007ee0
000c48  0500              DCB      0x05,0x00
000c4a  d150              DCW      0xd150
                          DCD      0x0000c0f1
000c50  0500              DCB      0x05,0x00
000c52  d152              DCW      0xd152
                          DCD      0x000071cf
000c58  0500              DCB      0x05,0x00
000c5a  d154              DCW      0xd154
                          DCD      0x0000ffff
000c60  0500              DCB      0x05,0x00
000c62  d156              DCW      0xd156
                          DCD      0x0000c610
000c68  0500              DCB      0x05,0x00
000c6a  d158              DCW      0xd158
                          DCD      0x0000910e
000c70  0500              DCB      0x05,0x00
000c72  d15a              DCW      0xd15a
                          DCD      0x0000208c
000c78  0500              DCB      0x05,0x00
000c7a  d15c              DCW      0xd15c
                          DCD      0x00008014
000c80  0500              DCB      0x05,0x00
000c82  d15e              DCW      0xd15e
                          DCD      0x0000f418
000c88  0500              DCB      0x05,0x00
000c8a  d160              DCW      0xd160
                          DCD      0x0000910f
000c90  0500              DCB      0x05,0x00
000c92  d162              DCW      0xd162
                          DCD      0x0000208c
000c98  0500              DCB      0x05,0x00
000c9a  d164              DCW      0xd164
                          DCD      0x0000800f
000ca0  0500              DCB      0x05,0x00
000ca2  d166              DCW      0xd166
                          DCD      0x0000f414
000ca8  0500              DCB      0x05,0x00
000caa  d168              DCW      0xd168
                          DCD      0x00009116
000cb0  0500              DCB      0x05,0x00
000cb2  d16a              DCW      0xd16a
                          DCD      0x0000208c
000cb8  0500              DCB      0x05,0x00
000cba  d16c              DCW      0xd16c
                          DCD      0x0000800a
000cc0  0500              DCB      0x05,0x00
000cc2  d16e              DCW      0xd16e
                          DCD      0x0000f410
000cc8  0500              DCB      0x05,0x00
000cca  d170              DCW      0xd170
                          DCD      0x00009117
000cd0  0500              DCB      0x05,0x00
000cd2  d172              DCW      0xd172
                          DCD      0x0000208c
000cd8  0500              DCB      0x05,0x00
000cda  d174              DCW      0xd174
                          DCD      0x00008807
000ce0  0500              DCB      0x05,0x00
000ce2  d176              DCW      0xd176
                          DCD      0x0000f40c
000ce8  0500              DCB      0x05,0x00
000cea  d178              DCW      0xd178
                          DCD      0x00009118
000cf0  0500              DCB      0x05,0x00
000cf2  d17a              DCW      0xd17a
                          DCD      0x00002086
000cf8  0500              DCB      0x05,0x00
000cfa  d17c              DCW      0xd17c
                          DCD      0x00000ff3
000d00  0500              DCB      0x05,0x00
000d02  d17e              DCW      0xd17e
                          DCD      0x0000b848
000d08  0500              DCB      0x05,0x00
000d0a  d180              DCW      0xd180
                          DCD      0x0000080d
000d10  0500              DCB      0x05,0x00
000d12  d182              DCW      0xd182
                          DCD      0x00000090
000d18  0500              DCB      0x05,0x00
000d1a  d184              DCW      0xd184
                          DCD      0x0000ffea
000d20  0500              DCB      0x05,0x00
000d22  d186              DCW      0xd186
                          DCD      0x0000e081
000d28  0500              DCB      0x05,0x00
000d2a  d188              DCW      0xd188
                          DCD      0x0000d801
000d30  0500              DCB      0x05,0x00
000d32  d18a              DCW      0xd18a
                          DCD      0x0000f203
000d38  0500              DCB      0x05,0x00
000d3a  d18c              DCW      0xd18c
                          DCD      0x0000d800
000d40  0500              DCB      0x05,0x00
000d42  d18e              DCW      0xd18e
                          DCD      0x0000c0d1
000d48  0500              DCB      0x05,0x00
000d4a  d190              DCW      0xd190
                          DCD      0x00007ee0
000d50  0500              DCB      0x05,0x00
000d52  d192              DCW      0xd192
                          DCD      0x000078e0
000d58  0500              DCB      0x05,0x00
000d5a  d194              DCW      0xd194
                          DCD      0x0000c0f1
000d60  0500              DCB      0x05,0x00
000d62  d196              DCW      0xd196
                          DCD      0x000071cf
000d68  0500              DCB      0x05,0x00
000d6a  d198              DCW      0xd198
                          DCD      0x0000ffff
000d70  0500              DCB      0x05,0x00
000d72  d19a              DCW      0xd19a
                          DCD      0x0000c610
000d78  0500              DCB      0x05,0x00
000d7a  d19c              DCW      0xd19c
                          DCD      0x0000910e
000d80  0500              DCB      0x05,0x00
000d82  d19e              DCW      0xd19e
                          DCD      0x0000208c
000d88  0500              DCB      0x05,0x00
000d8a  d1a0              DCW      0xd1a0
                          DCD      0x0000800a
000d90  0500              DCB      0x05,0x00
000d92  d1a2              DCW      0xd1a2
                          DCD      0x0000f418
000d98  0500              DCB      0x05,0x00
000d9a  d1a4              DCW      0xd1a4
                          DCD      0x0000910f
000da0  0500              DCB      0x05,0x00
000da2  d1a6              DCW      0xd1a6
                          DCD      0x0000208c
000da8  0500              DCB      0x05,0x00
000daa  d1a8              DCW      0xd1a8
                          DCD      0x00008807
000db0  0500              DCB      0x05,0x00
000db2  d1aa              DCW      0xd1aa
                          DCD      0x0000f414
000db8  0500              DCB      0x05,0x00
000dba  d1ac              DCW      0xd1ac
                          DCD      0x00009116
000dc0  0500              DCB      0x05,0x00
000dc2  d1ae              DCW      0xd1ae
                          DCD      0x0000208c
000dc8  0500              DCB      0x05,0x00
000dca  d1b0              DCW      0xd1b0
                          DCD      0x0000800a
000dd0  0500              DCB      0x05,0x00
000dd2  d1b2              DCW      0xd1b2
                          DCD      0x0000f410
000dd8  0500              DCB      0x05,0x00
000dda  d1b4              DCW      0xd1b4
                          DCD      0x00009117
000de0  0500              DCB      0x05,0x00
000de2  d1b6              DCW      0xd1b6
                          DCD      0x0000208c
000de8  0500              DCB      0x05,0x00
000dea  d1b8              DCW      0xd1b8
                          DCD      0x00008807
000df0  0500              DCB      0x05,0x00
000df2  d1ba              DCW      0xd1ba
                          DCD      0x0000f40c
000df8  0500              DCB      0x05,0x00
000dfa  d1bc              DCW      0xd1bc
                          DCD      0x00009118
000e00  0500              DCB      0x05,0x00
000e02  d1be              DCW      0xd1be
                          DCD      0x00002086
000e08  0500              DCB      0x05,0x00
000e0a  d1c0              DCW      0xd1c0
                          DCD      0x00000ff3
000e10  0500              DCB      0x05,0x00
000e12  d1c2              DCW      0xd1c2
                          DCD      0x0000b848
000e18  0500              DCB      0x05,0x00
000e1a  d1c4              DCW      0xd1c4
                          DCD      0x0000080d
000e20  0500              DCB      0x05,0x00
000e22  d1c6              DCW      0xd1c6
                          DCD      0x00000090
000e28  0500              DCB      0x05,0x00
000e2a  d1c8              DCW      0xd1c8
                          DCD      0x0000ffd9
000e30  0500              DCB      0x05,0x00
000e32  d1ca              DCW      0xd1ca
                          DCD      0x0000e080
000e38  0500              DCB      0x05,0x00
000e3a  d1cc              DCW      0xd1cc
                          DCD      0x0000d801
000e40  0500              DCB      0x05,0x00
000e42  d1ce              DCW      0xd1ce
                          DCD      0x0000f203
000e48  0500              DCB      0x05,0x00
000e4a  d1d0              DCW      0xd1d0
                          DCD      0x0000d800
000e50  0500              DCB      0x05,0x00
000e52  d1d2              DCW      0xd1d2
                          DCD      0x0000f1df
000e58  0500              DCB      0x05,0x00
000e5a  d1d4              DCW      0xd1d4
                          DCD      0x00009040
000e60  0500              DCB      0x05,0x00
000e62  d1d6              DCW      0xd1d6
                          DCD      0x000071cf
000e68  0500              DCB      0x05,0x00
000e6a  d1d8              DCW      0xd1d8
                          DCD      0x0000ffff
000e70  0500              DCB      0x05,0x00
000e72  d1da              DCW      0xd1da
                          DCD      0x0000c5d4
000e78  0500              DCB      0x05,0x00
000e7a  d1dc              DCW      0xd1dc
                          DCD      0x0000b15a
000e80  0500              DCB      0x05,0x00
000e82  d1de              DCW      0xd1de
                          DCD      0x00009041
000e88  0500              DCB      0x05,0x00
000e8a  d1e0              DCW      0xd1e0
                          DCD      0x000073cf
000e90  0500              DCB      0x05,0x00
000e92  d1e2              DCW      0xd1e2
                          DCD      0x0000ffff
000e98  0500              DCB      0x05,0x00
000e9a  d1e4              DCW      0xd1e4
                          DCD      0x0000c7d0
000ea0  0500              DCB      0x05,0x00
000ea2  d1e6              DCW      0xd1e6
                          DCD      0x0000b140
000ea8  0500              DCB      0x05,0x00
000eaa  d1e8              DCW      0xd1e8
                          DCD      0x00009042
000eb0  0500              DCB      0x05,0x00
000eb2  d1ea              DCW      0xd1ea
                          DCD      0x0000b141
000eb8  0500              DCB      0x05,0x00
000eba  d1ec              DCW      0xd1ec
                          DCD      0x00009043
000ec0  0500              DCB      0x05,0x00
000ec2  d1ee              DCW      0xd1ee
                          DCD      0x0000b142
000ec8  0500              DCB      0x05,0x00
000eca  d1f0              DCW      0xd1f0
                          DCD      0x00009044
000ed0  0500              DCB      0x05,0x00
000ed2  d1f2              DCW      0xd1f2
                          DCD      0x0000b143
000ed8  0500              DCB      0x05,0x00
000eda  d1f4              DCW      0xd1f4
                          DCD      0x00009045
000ee0  0500              DCB      0x05,0x00
000ee2  d1f6              DCW      0xd1f6
                          DCD      0x0000b147
000ee8  0500              DCB      0x05,0x00
000eea  d1f8              DCW      0xd1f8
                          DCD      0x00009046
000ef0  0500              DCB      0x05,0x00
000ef2  d1fa              DCW      0xd1fa
                          DCD      0x0000b148
000ef8  0500              DCB      0x05,0x00
000efa  d1fc              DCW      0xd1fc
                          DCD      0x00009047
000f00  0500              DCB      0x05,0x00
000f02  d1fe              DCW      0xd1fe
                          DCD      0x0000b14b
000f08  0500              DCB      0x05,0x00
000f0a  d200              DCW      0xd200
                          DCD      0x00009048
000f10  0500              DCB      0x05,0x00
000f12  d202              DCW      0xd202
                          DCD      0x0000b14c
000f18  0500              DCB      0x05,0x00
000f1a  d204              DCW      0xd204
                          DCD      0x00009049
000f20  0500              DCB      0x05,0x00
000f22  d206              DCW      0xd206
                          DCD      0x00001958
000f28  0500              DCB      0x05,0x00
000f2a  d208              DCW      0xd208
                          DCD      0x00000084
000f30  0500              DCB      0x05,0x00
000f32  d20a              DCW      0xd20a
                          DCD      0x0000904a
000f38  0500              DCB      0x05,0x00
000f3a  d20c              DCW      0xd20c
                          DCD      0x0000195a
000f40  0500              DCB      0x05,0x00
000f42  d20e              DCW      0xd20e
                          DCD      0x00000084
000f48  0500              DCB      0x05,0x00
000f4a  d210              DCW      0xd210
                          DCD      0x00008856
000f50  0500              DCB      0x05,0x00
000f52  d212              DCW      0xd212
                          DCD      0x00001b36
000f58  0500              DCB      0x05,0x00
000f5a  d214              DCW      0xd214
                          DCD      0x00008082
000f60  0500              DCB      0x05,0x00
000f62  d216              DCW      0xd216
                          DCD      0x00008857
000f68  0500              DCB      0x05,0x00
000f6a  d218              DCW      0xd218
                          DCD      0x00001b37
000f70  0500              DCB      0x05,0x00
000f72  d21a              DCW      0xd21a
                          DCD      0x00008082
000f78  0500              DCB      0x05,0x00
000f7a  d21c              DCW      0xd21c
                          DCD      0x0000904c
000f80  0500              DCB      0x05,0x00
000f82  d21e              DCW      0xd21e
                          DCD      0x000019a7
000f88  0500              DCB      0x05,0x00
000f8a  d220              DCW      0xd220
                          DCD      0x0000009c
000f90  0500              DCB      0x05,0x00
000f92  d222              DCW      0xd222
                          DCD      0x0000881a
000f98  0500              DCB      0x05,0x00
000f9a  d224              DCW      0xd224
                          DCD      0x00007fe0
000fa0  0500              DCB      0x05,0x00
000fa2  d226              DCW      0xd226
                          DCD      0x00001b54
000fa8  0500              DCB      0x05,0x00
000faa  d228              DCW      0xd228
                          DCD      0x00008002
000fb0  0500              DCB      0x05,0x00
000fb2  d22a              DCW      0xd22a
                          DCD      0x000078e0
000fb8  0500              DCB      0x05,0x00
000fba  d22c              DCW      0xd22c
                          DCD      0x000071cf
000fc0  0500              DCB      0x05,0x00
000fc2  d22e              DCW      0xd22e
                          DCD      0x0000ffff
000fc8  0500              DCB      0x05,0x00
000fca  d230              DCW      0xd230
                          DCD      0x0000c350
000fd0  0500              DCB      0x05,0x00
000fd2  d232              DCW      0xd232
                          DCD      0x0000d828
000fd8  0500              DCB      0x05,0x00
000fda  d234              DCW      0xd234
                          DCD      0x0000a90b
000fe0  0500              DCB      0x05,0x00
000fe2  d236              DCW      0xd236
                          DCD      0x00008100
000fe8  0500              DCB      0x05,0x00
000fea  d238              DCW      0xd238
                          DCD      0x000001c5
000ff0  0500              DCB      0x05,0x00
000ff2  d23a              DCW      0xd23a
                          DCD      0x00000320
000ff8  0500              DCB      0x05,0x00
000ffa  d23c              DCW      0xd23c
                          DCD      0x0000d900
001000  0500              DCB      0x05,0x00
001002  d23e              DCW      0xd23e
                          DCD      0x000078e0
001008  0500              DCB      0x05,0x00
00100a  d240              DCW      0xd240
                          DCD      0x0000220a
001010  0500              DCB      0x05,0x00
001012  d242              DCW      0xd242
                          DCD      0x00001f80
001018  0500              DCB      0x05,0x00
00101a  d244              DCW      0xd244
                          DCD      0x0000ffff
001020  0500              DCB      0x05,0x00
001022  d246              DCW      0xd246
                          DCD      0x0000d4e0
001028  0500              DCB      0x05,0x00
00102a  d248              DCW      0xd248
                          DCD      0x0000c0f1
001030  0500              DCB      0x05,0x00
001032  d24a              DCW      0xd24a
                          DCD      0x00000811
001038  0500              DCB      0x05,0x00
00103a  d24c              DCW      0xd24c
                          DCD      0x00000051
001040  0500              DCB      0x05,0x00
001042  d24e              DCW      0xd24e
                          DCD      0x00002240
001048  0500              DCB      0x05,0x00
00104a  d250              DCW      0xd250
                          DCD      0x00001200
001050  0500              DCB      0x05,0x00
001052  d252              DCW      0xd252
                          DCD      0x0000ffe1
001058  0500              DCB      0x05,0x00
00105a  d254              DCW      0xd254
                          DCD      0x0000d801
001060  0500              DCB      0x05,0x00
001062  d256              DCW      0xd256
                          DCD      0x0000f006
001068  0500              DCB      0x05,0x00
00106a  d258              DCW      0xd258
                          DCD      0x00002240
001070  0500              DCB      0x05,0x00
001072  d25a              DCW      0xd25a
                          DCD      0x00001900
001078  0500              DCB      0x05,0x00
00107a  d25c              DCW      0xd25c
                          DCD      0x0000ffde
001080  0500              DCB      0x05,0x00
001082  d25e              DCW      0xd25e
                          DCD      0x0000d802
001088  0500              DCB      0x05,0x00
00108a  d260              DCW      0xd260
                          DCD      0x00001a05
001090  0500              DCB      0x05,0x00
001092  d262              DCW      0xd262
                          DCD      0x00001002
001098  0500              DCB      0x05,0x00
00109a  d264              DCW      0xd264
                          DCD      0x0000fff2
0010a0  0500              DCB      0x05,0x00
0010a2  d266              DCW      0xd266
                          DCD      0x0000f195
0010a8  0500              DCB      0x05,0x00
0010aa  d268              DCW      0xd268
                          DCD      0x0000c0f1
0010b0  0500              DCB      0x05,0x00
0010b2  d26a              DCW      0xd26a
                          DCD      0x00000e7e
0010b8  0500              DCB      0x05,0x00
0010ba  d26c              DCW      0xd26c
                          DCD      0x000005c0
0010c0  0500              DCB      0x05,0x00
0010c2  d26e              DCW      0xd26e
                          DCD      0x000075cf
0010c8  0500              DCB      0x05,0x00
0010ca  d270              DCW      0xd270
                          DCD      0x0000ffff
0010d0  0500              DCB      0x05,0x00
0010d2  d272              DCW      0xd272
                          DCD      0x0000c84c
0010d8  0500              DCB      0x05,0x00
0010da  d274              DCW      0xd274
                          DCD      0x00009502
0010e0  0500              DCB      0x05,0x00
0010e2  d276              DCW      0xd276
                          DCD      0x000077cf
0010e8  0500              DCB      0x05,0x00
0010ea  d278              DCW      0xd278
                          DCD      0x0000ffff
0010f0  0500              DCB      0x05,0x00
0010f2  d27a              DCW      0xd27a
                          DCD      0x0000c344
0010f8  0500              DCB      0x05,0x00
0010fa  d27c              DCW      0xd27c
                          DCD      0x00002044
001100  0500              DCB      0x05,0x00
001102  d27e              DCW      0xd27e
                          DCD      0x0000008e
001108  0500              DCB      0x05,0x00
00110a  d280              DCW      0xd280
                          DCD      0x0000b8a1
001110  0500              DCB      0x05,0x00
001112  d282              DCW      0xd282
                          DCD      0x00000926
001118  0500              DCB      0x05,0x00
00111a  d284              DCW      0xd284
                          DCD      0x000003e0
001120  0500              DCB      0x05,0x00
001122  d286              DCW      0xd286
                          DCD      0x0000b502
001128  0500              DCB      0x05,0x00
00112a  d288              DCW      0xd288
                          DCD      0x00009502
001130  0500              DCB      0x05,0x00
001132  d28a              DCW      0xd28a
                          DCD      0x0000952e
001138  0500              DCB      0x05,0x00
00113a  d28c              DCW      0xd28c
                          DCD      0x00007e05
001140  0500              DCB      0x05,0x00
001142  d28e              DCW      0xd28e
                          DCD      0x0000b5c2
001148  0500              DCB      0x05,0x00
00114a  d290              DCW      0xd290
                          DCD      0x000070cf
001150  0500              DCB      0x05,0x00
001152  d292              DCW      0xd292
                          DCD      0x0000ffff
001158  0500              DCB      0x05,0x00
00115a  d294              DCW      0xd294
                          DCD      0x0000c610
001160  0500              DCB      0x05,0x00
001162  d296              DCW      0xd296
                          DCD      0x0000099a
001168  0500              DCB      0x05,0x00
00116a  d298              DCW      0xd298
                          DCD      0x000004a0
001170  0500              DCB      0x05,0x00
001172  d29a              DCW      0xd29a
                          DCD      0x0000b026
001178  0500              DCB      0x05,0x00
00117a  d29c              DCW      0xd29c
                          DCD      0x00000e02
001180  0500              DCB      0x05,0x00
001182  d29e              DCW      0xd29e
                          DCD      0x00000560
001188  0500              DCB      0x05,0x00
00118a  d2a0              DCW      0xd2a0
                          DCD      0x0000de00
001190  0500              DCB      0x05,0x00
001192  d2a2              DCW      0xd2a2
                          DCD      0x00000a12
001198  0500              DCB      0x05,0x00
00119a  d2a4              DCW      0xd2a4
                          DCD      0x00000320
0011a0  0500              DCB      0x05,0x00
0011a2  d2a6              DCW      0xd2a6
                          DCD      0x0000b7c4
0011a8  0500              DCB      0x05,0x00
0011aa  d2a8              DCW      0xd2a8
                          DCD      0x00000b36
0011b0  0500              DCB      0x05,0x00
0011b2  d2aa              DCW      0xd2aa
                          DCD      0x000003a0
0011b8  0500              DCB      0x05,0x00
0011ba  d2ac              DCW      0xd2ac
                          DCD      0x000070c9
0011c0  0500              DCB      0x05,0x00
0011c2  d2ae              DCW      0xd2ae
                          DCD      0x00009502
0011c8  0500              DCB      0x05,0x00
0011ca  d2b0              DCW      0xd2b0
                          DCD      0x00007608
0011d0  0500              DCB      0x05,0x00
0011d2  d2b2              DCW      0xd2b2
                          DCD      0x0000b8a8
0011d8  0500              DCB      0x05,0x00
0011da  d2b4              DCW      0xd2b4
                          DCD      0x0000b502
0011e0  0500              DCB      0x05,0x00
0011e2  d2b6              DCW      0xd2b6
                          DCD      0x000070cf
0011e8  0500              DCB      0x05,0x00
0011ea  d2b8              DCW      0xd2b8
                          DCD      0x00000000
0011f0  0500              DCB      0x05,0x00
0011f2  d2ba              DCW      0xd2ba
                          DCD      0x00005536
0011f8  0500              DCB      0x05,0x00
0011fa  d2bc              DCW      0xd2bc
                          DCD      0x00007860
001200  0500              DCB      0x05,0x00
001202  d2be              DCW      0xd2be
                          DCD      0x00002686
001208  0500              DCB      0x05,0x00
00120a  d2c0              DCW      0xd2c0
                          DCD      0x00001ffb
001210  0500              DCB      0x05,0x00
001212  d2c2              DCW      0xd2c2
                          DCD      0x00009502
001218  0500              DCB      0x05,0x00
00121a  d2c4              DCW      0xd2c4
                          DCD      0x000078c5
001220  0500              DCB      0x05,0x00
001222  d2c6              DCW      0xd2c6
                          DCD      0x00000631
001228  0500              DCB      0x05,0x00
00122a  d2c8              DCW      0xd2c8
                          DCD      0x000005e0
001230  0500              DCB      0x05,0x00
001232  d2ca              DCW      0xd2ca
                          DCD      0x0000b502
001238  0500              DCB      0x05,0x00
00123a  d2cc              DCW      0xd2cc
                          DCD      0x000072cf
001240  0500              DCB      0x05,0x00
001242  d2ce              DCW      0xd2ce
                          DCD      0x0000ffff
001248  0500              DCB      0x05,0x00
00124a  d2d0              DCW      0xd2d0
                          DCD      0x0000c5d4
001250  0500              DCB      0x05,0x00
001252  d2d2              DCW      0xd2d2
                          DCD      0x0000923a
001258  0500              DCB      0x05,0x00
00125a  d2d4              DCW      0xd2d4
                          DCD      0x000073cf
001260  0500              DCB      0x05,0x00
001262  d2d6              DCW      0xd2d6
                          DCD      0x0000ffff
001268  0500              DCB      0x05,0x00
00126a  d2d8              DCW      0xd2d8
                          DCD      0x0000c7d0
001270  0500              DCB      0x05,0x00
001272  d2da              DCW      0xd2da
                          DCD      0x0000b020
001278  0500              DCB      0x05,0x00
00127a  d2dc              DCW      0xd2dc
                          DCD      0x00009220
001280  0500              DCB      0x05,0x00
001282  d2de              DCW      0xd2de
                          DCD      0x0000b021
001288  0500              DCB      0x05,0x00
00128a  d2e0              DCW      0xd2e0
                          DCD      0x00009221
001290  0500              DCB      0x05,0x00
001292  d2e2              DCW      0xd2e2
                          DCD      0x0000b022
001298  0500              DCB      0x05,0x00
00129a  d2e4              DCW      0xd2e4
                          DCD      0x00009222
0012a0  0500              DCB      0x05,0x00
0012a2  d2e6              DCW      0xd2e6
                          DCD      0x0000b023
0012a8  0500              DCB      0x05,0x00
0012aa  d2e8              DCW      0xd2e8
                          DCD      0x00009223
0012b0  0500              DCB      0x05,0x00
0012b2  d2ea              DCW      0xd2ea
                          DCD      0x0000b024
0012b8  0500              DCB      0x05,0x00
0012ba  d2ec              DCW      0xd2ec
                          DCD      0x00009227
0012c0  0500              DCB      0x05,0x00
0012c2  d2ee              DCW      0xd2ee
                          DCD      0x0000b025
0012c8  0500              DCB      0x05,0x00
0012ca  d2f0              DCW      0xd2f0
                          DCD      0x00009228
0012d0  0500              DCB      0x05,0x00
0012d2  d2f2              DCW      0xd2f2
                          DCD      0x0000b026
0012d8  0500              DCB      0x05,0x00
0012da  d2f4              DCW      0xd2f4
                          DCD      0x0000922b
0012e0  0500              DCB      0x05,0x00
0012e2  d2f6              DCW      0xd2f6
                          DCD      0x0000b027
0012e8  0500              DCB      0x05,0x00
0012ea  d2f8              DCW      0xd2f8
                          DCD      0x0000922c
0012f0  0500              DCB      0x05,0x00
0012f2  d2fa              DCW      0xd2fa
                          DCD      0x0000b028
0012f8  0500              DCB      0x05,0x00
0012fa  d2fc              DCW      0xd2fc
                          DCD      0x00001258
001300  0500              DCB      0x05,0x00
001302  d2fe              DCW      0xd2fe
                          DCD      0x00000101
001308  0500              DCB      0x05,0x00
00130a  d300              DCW      0xd300
                          DCD      0x0000b029
001310  0500              DCB      0x05,0x00
001312  d302              DCW      0xd302
                          DCD      0x0000125a
001318  0500              DCB      0x05,0x00
00131a  d304              DCW      0xd304
                          DCD      0x00000101
001320  0500              DCB      0x05,0x00
001322  d306              DCW      0xd306
                          DCD      0x0000b02a
001328  0500              DCB      0x05,0x00
00132a  d308              DCW      0xd308
                          DCD      0x00001336
001330  0500              DCB      0x05,0x00
001332  d30a              DCW      0xd30a
                          DCD      0x00008081
001338  0500              DCB      0x05,0x00
00133a  d30c              DCW      0xd30c
                          DCD      0x0000a836
001340  0500              DCB      0x05,0x00
001342  d30e              DCW      0xd30e
                          DCD      0x00001337
001348  0500              DCB      0x05,0x00
00134a  d310              DCW      0xd310
                          DCD      0x00008081
001350  0500              DCB      0x05,0x00
001352  d312              DCW      0xd312
                          DCD      0x0000a837
001358  0500              DCB      0x05,0x00
00135a  d314              DCW      0xd314
                          DCD      0x000012a7
001360  0500              DCB      0x05,0x00
001362  d316              DCW      0xd316
                          DCD      0x00000701
001368  0500              DCB      0x05,0x00
00136a  d318              DCW      0xd318
                          DCD      0x0000b02c
001370  0500              DCB      0x05,0x00
001372  d31a              DCW      0xd31a
                          DCD      0x00001354
001378  0500              DCB      0x05,0x00
00137a  d31c              DCW      0xd31c
                          DCD      0x00008081
001380  0500              DCB      0x05,0x00
001382  d31e              DCW      0xd31e
                          DCD      0x00007fe0
001388  0500              DCB      0x05,0x00
00138a  d320              DCW      0xd320
                          DCD      0x0000a83a
001390  0500              DCB      0x05,0x00
001392  d322              DCW      0xd322
                          DCD      0x000078e0
001398  0500              DCB      0x05,0x00
00139a  d324              DCW      0xd324
                          DCD      0x0000c0f1
0013a0  0500              DCB      0x05,0x00
0013a2  d326              DCW      0xd326
                          DCD      0x00000dc2
0013a8  0500              DCB      0x05,0x00
0013aa  d328              DCW      0xd328
                          DCD      0x000005c0
0013b0  0500              DCB      0x05,0x00
0013b2  d32a              DCW      0xd32a
                          DCD      0x00007608
0013b8  0500              DCB      0x05,0x00
0013ba  d32c              DCW      0xd32c
                          DCD      0x000009bb
0013c0  0500              DCB      0x05,0x00
0013c2  d32e              DCW      0xd32e
                          DCD      0x00000010
0013c8  0500              DCB      0x05,0x00
0013ca  d330              DCW      0xd330
                          DCD      0x000075cf
0013d0  0500              DCB      0x05,0x00
0013d2  d332              DCW      0xd332
                          DCD      0x0000ffff
0013d8  0500              DCB      0x05,0x00
0013da  d334              DCW      0xd334
                          DCD      0x0000d4e0
0013e0  0500              DCB      0x05,0x00
0013e2  d336              DCW      0xd336
                          DCD      0x00008d21
0013e8  0500              DCB      0x05,0x00
0013ea  d338              DCW      0xd338
                          DCD      0x00008d00
0013f0  0500              DCB      0x05,0x00
0013f2  d33a              DCW      0xd33a
                          DCD      0x00002153
0013f8  0500              DCB      0x05,0x00
0013fa  d33c              DCW      0xd33c
                          DCD      0x00000003
001400  0500              DCB      0x05,0x00
001402  d33e              DCW      0xd33e
                          DCD      0x0000b8c0
001408  0500              DCB      0x05,0x00
00140a  d340              DCW      0xd340
                          DCD      0x00008d45
001410  0500              DCB      0x05,0x00
001412  d342              DCW      0xd342
                          DCD      0x00000b23
001418  0500              DCB      0x05,0x00
00141a  d344              DCW      0xd344
                          DCD      0x00000000
001420  0500              DCB      0x05,0x00
001422  d346              DCW      0xd346
                          DCD      0x0000ea8f
001428  0500              DCB      0x05,0x00
00142a  d348              DCW      0xd348
                          DCD      0x00000915
001430  0500              DCB      0x05,0x00
001432  d34a              DCW      0xd34a
                          DCD      0x0000001e
001438  0500              DCB      0x05,0x00
00143a  d34c              DCW      0xd34c
                          DCD      0x0000ff81
001440  0500              DCB      0x05,0x00
001442  d34e              DCW      0xd34e
                          DCD      0x0000e808
001448  0500              DCB      0x05,0x00
00144a  d350              DCW      0xd350
                          DCD      0x00002540
001450  0500              DCB      0x05,0x00
001452  d352              DCW      0xd352
                          DCD      0x00001900
001458  0500              DCB      0x05,0x00
00145a  d354              DCW      0xd354
                          DCD      0x0000ffde
001460  0500              DCB      0x05,0x00
001462  d356              DCW      0xd356
                          DCD      0x00008d00
001468  0500              DCB      0x05,0x00
00146a  d358              DCW      0xd358
                          DCD      0x0000b880
001470  0500              DCB      0x05,0x00
001472  d35a              DCW      0xd35a
                          DCD      0x0000f004
001478  0500              DCB      0x05,0x00
00147a  d35c              DCW      0xd35c
                          DCD      0x00008d00
001480  0500              DCB      0x05,0x00
001482  d35e              DCW      0xd35e
                          DCD      0x0000b8a0
001488  0500              DCB      0x05,0x00
00148a  d360              DCW      0xd360
                          DCD      0x0000ad00
001490  0500              DCB      0x05,0x00
001492  d362              DCW      0xd362
                          DCD      0x00008d05
001498  0500              DCB      0x05,0x00
00149a  d364              DCW      0xd364
                          DCD      0x0000e081
0014a0  0500              DCB      0x05,0x00
0014a2  d366              DCW      0xd366
                          DCD      0x000020cc
0014a8  0500              DCB      0x05,0x00
0014aa  d368              DCW      0xd368
                          DCD      0x000080a2
0014b0  0500              DCB      0x05,0x00
0014b2  d36a              DCW      0xd36a
                          DCD      0x0000df00
0014b8  0500              DCB      0x05,0x00
0014ba  d36c              DCW      0xd36c
                          DCD      0x0000f40a
0014c0  0500              DCB      0x05,0x00
0014c2  d36e              DCW      0xd36e
                          DCD      0x000071cf
0014c8  0500              DCB      0x05,0x00
0014ca  d370              DCW      0xd370
                          DCD      0x0000ffff
0014d0  0500              DCB      0x05,0x00
0014d2  d372              DCW      0xd372
                          DCD      0x0000c84c
0014d8  0500              DCB      0x05,0x00
0014da  d374              DCW      0xd374
                          DCD      0x00009102
0014e0  0500              DCB      0x05,0x00
0014e2  d376              DCW      0xd376
                          DCD      0x00007708
0014e8  0500              DCB      0x05,0x00
0014ea  d378              DCW      0xd378
                          DCD      0x0000b8a6
0014f0  0500              DCB      0x05,0x00
0014f2  d37a              DCW      0xd37a
                          DCD      0x00002786
0014f8  0500              DCB      0x05,0x00
0014fa  d37c              DCW      0xd37c
                          DCD      0x00001ffe
001500  0500              DCB      0x05,0x00
001502  d37e              DCW      0xd37e
                          DCD      0x0000b102
001508  0500              DCB      0x05,0x00
00150a  d380              DCW      0xd380
                          DCD      0x00000b42
001510  0500              DCB      0x05,0x00
001512  d382              DCW      0xd382
                          DCD      0x00000180
001518  0500              DCB      0x05,0x00
00151a  d384              DCW      0xd384
                          DCD      0x00000e3e
001520  0500              DCB      0x05,0x00
001522  d386              DCW      0xd386
                          DCD      0x00000180
001528  0500              DCB      0x05,0x00
00152a  d388              DCW      0xd388
                          DCD      0x00000f4a
001530  0500              DCB      0x05,0x00
001532  d38a              DCW      0xd38a
                          DCD      0x00000160
001538  0500              DCB      0x05,0x00
00153a  d38c              DCW      0xd38c
                          DCD      0x000070c9
001540  0500              DCB      0x05,0x00
001542  d38e              DCW      0xd38e
                          DCD      0x00008d05
001548  0500              DCB      0x05,0x00
00154a  d390              DCW      0xd390
                          DCD      0x0000e081
001550  0500              DCB      0x05,0x00
001552  d392              DCW      0xd392
                          DCD      0x000020cc
001558  0500              DCB      0x05,0x00
00155a  d394              DCW      0xd394
                          DCD      0x000080a2
001560  0500              DCB      0x05,0x00
001562  d396              DCW      0xd396
                          DCD      0x0000f429
001568  0500              DCB      0x05,0x00
00156a  d398              DCW      0xd398
                          DCD      0x000076cf
001570  0500              DCB      0x05,0x00
001572  d39a              DCW      0xd39a
                          DCD      0x0000ffff
001578  0500              DCB      0x05,0x00
00157a  d39c              DCW      0xd39c
                          DCD      0x0000c84c
001580  0500              DCB      0x05,0x00
001582  d39e              DCW      0xd39e
                          DCD      0x0000082d
001588  0500              DCB      0x05,0x00
00158a  d3a0              DCW      0xd3a0
                          DCD      0x00000051
001590  0500              DCB      0x05,0x00
001592  d3a2              DCW      0xd3a2
                          DCD      0x000070cf
001598  0500              DCB      0x05,0x00
00159a  d3a4              DCW      0xd3a4
                          DCD      0x0000ffff
0015a0  0500              DCB      0x05,0x00
0015a2  d3a6              DCW      0xd3a6
                          DCD      0x0000c90c
0015a8  0500              DCB      0x05,0x00
0015aa  d3a8              DCW      0xd3a8
                          DCD      0x00008805
0015b0  0500              DCB      0x05,0x00
0015b2  d3aa              DCW      0xd3aa
                          DCD      0x000009b6
0015b8  0500              DCB      0x05,0x00
0015ba  d3ac              DCW      0xd3ac
                          DCD      0x00000360
0015c0  0500              DCB      0x05,0x00
0015c2  d3ae              DCW      0xd3ae
                          DCD      0x0000d908
0015c8  0500              DCB      0x05,0x00
0015ca  d3b0              DCW      0xd3b0
                          DCD      0x00002099
0015d0  0500              DCB      0x05,0x00
0015d2  d3b2              DCW      0xd3b2
                          DCD      0x00000802
0015d8  0500              DCB      0x05,0x00
0015da  d3b4              DCW      0xd3b4
                          DCD      0x00009634
0015e0  0500              DCB      0x05,0x00
0015e2  d3b6              DCW      0xd3b6
                          DCD      0x0000b503
0015e8  0500              DCB      0x05,0x00
0015ea  d3b8              DCW      0xd3b8
                          DCD      0x00007902
0015f0  0500              DCB      0x05,0x00
0015f2  d3ba              DCW      0xd3ba
                          DCD      0x00001523
0015f8  0500              DCB      0x05,0x00
0015fa  d3bc              DCW      0xd3bc
                          DCD      0x00001080
001600  0500              DCB      0x05,0x00
001602  d3be              DCW      0xd3be
                          DCD      0x0000b634
001608  0500              DCB      0x05,0x00
00160a  d3c0              DCW      0xd3c0
                          DCD      0x0000e001
001610  0500              DCB      0x05,0x00
001612  d3c2              DCW      0xd3c2
                          DCD      0x00001d23
001618  0500              DCB      0x05,0x00
00161a  d3c4              DCW      0xd3c4
                          DCD      0x00001002
001620  0500              DCB      0x05,0x00
001622  d3c6              DCW      0xd3c6
                          DCD      0x0000f00b
001628  0500              DCB      0x05,0x00
00162a  d3c8              DCW      0xd3c8
                          DCD      0x00009634
001630  0500              DCB      0x05,0x00
001632  d3ca              DCW      0xd3ca
                          DCD      0x00009503
001638  0500              DCB      0x05,0x00
00163a  d3cc              DCW      0xd3cc
                          DCD      0x00006038
001640  0500              DCB      0x05,0x00
001642  d3ce              DCW      0xd3ce
                          DCD      0x0000b614
001648  0500              DCB      0x05,0x00
00164a  d3d0              DCW      0xd3d0
                          DCD      0x0000153f
001650  0500              DCB      0x05,0x00
001652  d3d2              DCW      0xd3d2
                          DCD      0x00001080
001658  0500              DCB      0x05,0x00
00165a  d3d4              DCW      0xd3d4
                          DCD      0x0000e001
001660  0500              DCB      0x05,0x00
001662  d3d6              DCW      0xd3d6
                          DCD      0x00001d3f
001668  0500              DCB      0x05,0x00
00166a  d3d8              DCW      0xd3d8
                          DCD      0x00001002
001670  0500              DCB      0x05,0x00
001672  d3da              DCW      0xd3da
                          DCD      0x0000ffa4
001678  0500              DCB      0x05,0x00
00167a  d3dc              DCW      0xd3dc
                          DCD      0x00009602
001680  0500              DCB      0x05,0x00
001682  d3de              DCW      0xd3de
                          DCD      0x00007f05
001688  0500              DCB      0x05,0x00
00168a  d3e0              DCW      0xd3e0
                          DCD      0x0000d800
001690  0500              DCB      0x05,0x00
001692  d3e2              DCW      0xd3e2
                          DCD      0x0000b6e2
001698  0500              DCB      0x05,0x00
00169a  d3e4              DCW      0xd3e4
                          DCD      0x0000ad05
0016a0  0500              DCB      0x05,0x00
0016a2  d3e6              DCW      0xd3e6
                          DCD      0x00000511
0016a8  0500              DCB      0x05,0x00
0016aa  d3e8              DCW      0xd3e8
                          DCD      0x000005e0
0016b0  0500              DCB      0x05,0x00
0016b2  d3ea              DCW      0xd3ea
                          DCD      0x0000d800
0016b8  0500              DCB      0x05,0x00
0016ba  d3ec              DCW      0xd3ec
                          DCD      0x0000c0f1
0016c0  0500              DCB      0x05,0x00
0016c2  d3ee              DCW      0xd3ee
                          DCD      0x00000cfe
0016c8  0500              DCB      0x05,0x00
0016ca  d3f0              DCW      0xd3f0
                          DCD      0x000005c0
0016d0  0500              DCB      0x05,0x00
0016d2  d3f2              DCW      0xd3f2
                          DCD      0x00000a96
0016d8  0500              DCB      0x05,0x00
0016da  d3f4              DCW      0xd3f4
                          DCD      0x000005a0
0016e0  0500              DCB      0x05,0x00
0016e2  d3f6              DCW      0xd3f6
                          DCD      0x00007608
0016e8  0500              DCB      0x05,0x00
0016ea  d3f8              DCW      0xd3f8
                          DCD      0x00000c22
0016f0  0500              DCB      0x05,0x00
0016f2  d3fa              DCW      0xd3fa
                          DCD      0x00000240
0016f8  0500              DCB      0x05,0x00
0016fa  d3fc              DCW      0xd3fc
                          DCD      0x0000e080
001700  0500              DCB      0x05,0x00
001702  d3fe              DCW      0xd3fe
                          DCD      0x000020ca
001708  0500              DCB      0x05,0x00
00170a  d400              DCW      0xd400
                          DCD      0x00000f82
001710  0500              DCB      0x05,0x00
001712  d402              DCW      0xd402
                          DCD      0x00000000
001718  0500              DCB      0x05,0x00
00171a  d404              DCW      0xd404
                          DCD      0x0000190b
001720  0500              DCB      0x05,0x00
001722  d406              DCW      0xd406
                          DCD      0x00000c60
001728  0500              DCB      0x05,0x00
00172a  d408              DCW      0xd408
                          DCD      0x000005a2
001730  0500              DCB      0x05,0x00
001732  d40a              DCW      0xd40a
                          DCD      0x000021ca
001738  0500              DCB      0x05,0x00
00173a  d40c              DCW      0xd40c
                          DCD      0x00000022
001740  0500              DCB      0x05,0x00
001742  d40e              DCW      0xd40e
                          DCD      0x00000c56
001748  0500              DCB      0x05,0x00
00174a  d410              DCW      0xd410
                          DCD      0x00000240
001750  0500              DCB      0x05,0x00
001752  d412              DCW      0xd412
                          DCD      0x0000e806
001758  0500              DCB      0x05,0x00
00175a  d414              DCW      0xd414
                          DCD      0x00000e0e
001760  0500              DCB      0x05,0x00
001762  d416              DCW      0xd416
                          DCD      0x00000220
001768  0500              DCB      0x05,0x00
00176a  d418              DCW      0xd418
                          DCD      0x000070c9
001770  0500              DCB      0x05,0x00
001772  d41a              DCW      0xd41a
                          DCD      0x0000f048
001778  0500              DCB      0x05,0x00
00177a  d41c              DCW      0xd41c
                          DCD      0x00000896
001780  0500              DCB      0x05,0x00
001782  d41e              DCW      0xd41e
                          DCD      0x00000440
001788  0500              DCB      0x05,0x00
00178a  d420              DCW      0xd420
                          DCD      0x00000e96
001790  0500              DCB      0x05,0x00
001792  d422              DCW      0xd422
                          DCD      0x00000400
001798  0500              DCB      0x05,0x00
00179a  d424              DCW      0xd424
                          DCD      0x00000966
0017a0  0500              DCB      0x05,0x00
0017a2  d426              DCW      0xd426
                          DCD      0x00000380
0017a8  0500              DCB      0x05,0x00
0017aa  d428              DCW      0xd428
                          DCD      0x000075cf
0017b0  0500              DCB      0x05,0x00
0017b2  d42a              DCW      0xd42a
                          DCD      0x0000ffff
0017b8  0500              DCB      0x05,0x00
0017ba  d42c              DCW      0xd42c
                          DCD      0x0000d4e0
0017c0  0500              DCB      0x05,0x00
0017c2  d42e              DCW      0xd42e
                          DCD      0x00008d00
0017c8  0500              DCB      0x05,0x00
0017ca  d430              DCW      0xd430
                          DCD      0x0000084d
0017d0  0500              DCB      0x05,0x00
0017d2  d432              DCW      0xd432
                          DCD      0x0000001e
0017d8  0500              DCB      0x05,0x00
0017da  d434              DCW      0xd434
                          DCD      0x0000ff47
0017e0  0500              DCB      0x05,0x00
0017e2  d436              DCW      0xd436
                          DCD      0x0000080d
0017e8  0500              DCB      0x05,0x00
0017ea  d438              DCW      0xd438
                          DCD      0x00000050
0017f0  0500              DCB      0x05,0x00
0017f2  d43a              DCW      0xd43a
                          DCD      0x0000ff57
0017f8  0500              DCB      0x05,0x00
0017fa  d43c              DCW      0xd43c
                          DCD      0x00000841
001800  0500              DCB      0x05,0x00
001802  d43e              DCW      0xd43e
                          DCD      0x00000051
001808  0500              DCB      0x05,0x00
00180a  d440              DCW      0xd440
                          DCD      0x00008d04
001810  0500              DCB      0x05,0x00
001812  d442              DCW      0xd442
                          DCD      0x00009521
001818  0500              DCB      0x05,0x00
00181a  d444              DCW      0xd444
                          DCD      0x0000e064
001820  0500              DCB      0x05,0x00
001822  d446              DCW      0xd446
                          DCD      0x0000790c
001828  0500              DCB      0x05,0x00
00182a  d448              DCW      0xd448
                          DCD      0x0000702f
001830  0500              DCB      0x05,0x00
001832  d44a              DCW      0xd44a
                          DCD      0x00000ce2
001838  0500              DCB      0x05,0x00
00183a  d44c              DCW      0xd44c
                          DCD      0x000005e0
001840  0500              DCB      0x05,0x00
001842  d44e              DCW      0xd44e
                          DCD      0x0000d964
001848  0500              DCB      0x05,0x00
00184a  d450              DCW      0xd450
                          DCD      0x000072cf
001850  0500              DCB      0x05,0x00
001852  d452              DCW      0xd452
                          DCD      0x0000ffff
001858  0500              DCB      0x05,0x00
00185a  d454              DCW      0xd454
                          DCD      0x0000c700
001860  0500              DCB      0x05,0x00
001862  d456              DCW      0xd456
                          DCD      0x00009235
001868  0500              DCB      0x05,0x00
00186a  d458              DCW      0xd458
                          DCD      0x00000811
001870  0500              DCB      0x05,0x00
001872  d45a              DCW      0xd45a
                          DCD      0x00000043
001878  0500              DCB      0x05,0x00
00187a  d45c              DCW      0xd45c
                          DCD      0x0000ff3d
001880  0500              DCB      0x05,0x00
001882  d45e              DCW      0xd45e
                          DCD      0x0000080d
001888  0500              DCB      0x05,0x00
00188a  d460              DCW      0xd460
                          DCD      0x00000051
001890  0500              DCB      0x05,0x00
001892  d462              DCW      0xd462
                          DCD      0x0000d801
001898  0500              DCB      0x05,0x00
00189a  d464              DCW      0xd464
                          DCD      0x0000ff77
0018a0  0500              DCB      0x05,0x00
0018a2  d466              DCW      0xd466
                          DCD      0x0000f025
0018a8  0500              DCB      0x05,0x00
0018aa  d468              DCW      0xd468
                          DCD      0x00009501
0018b0  0500              DCB      0x05,0x00
0018b2  d46a              DCW      0xd46a
                          DCD      0x00009235
0018b8  0500              DCB      0x05,0x00
0018ba  d46c              DCW      0xd46c
                          DCD      0x00000911
0018c0  0500              DCB      0x05,0x00
0018c2  d46e              DCW      0xd46e
                          DCD      0x00000003
0018c8  0500              DCB      0x05,0x00
0018ca  d470              DCW      0xd470
                          DCD      0x0000ff49
0018d0  0500              DCB      0x05,0x00
0018d2  d472              DCW      0xd472
                          DCD      0x0000080d
0018d8  0500              DCB      0x05,0x00
0018da  d474              DCW      0xd474
                          DCD      0x00000051
0018e0  0500              DCB      0x05,0x00
0018e2  d476              DCW      0xd476
                          DCD      0x0000d800
0018e8  0500              DCB      0x05,0x00
0018ea  d478              DCW      0xd478
                          DCD      0x0000ff72
0018f0  0500              DCB      0x05,0x00
0018f2  d47a              DCW      0xd47a
                          DCD      0x0000f01b
0018f8  0500              DCB      0x05,0x00
0018fa  d47c              DCW      0xd47c
                          DCD      0x00000886
001900  0500              DCB      0x05,0x00
001902  d47e              DCW      0xd47e
                          DCD      0x000003e0
001908  0500              DCB      0x05,0x00
00190a  d480              DCW      0xd480
                          DCD      0x0000d801
001910  0500              DCB      0x05,0x00
001912  d482              DCW      0xd482
                          DCD      0x00000ef6
001918  0500              DCB      0x05,0x00
00191a  d484              DCW      0xd484
                          DCD      0x000003c0
001920  0500              DCB      0x05,0x00
001922  d486              DCW      0xd486
                          DCD      0x00000f52
001928  0500              DCB      0x05,0x00
00192a  d488              DCW      0xd488
                          DCD      0x00000340
001930  0500              DCB      0x05,0x00
001932  d48a              DCW      0xd48a
                          DCD      0x00000dba
001938  0500              DCB      0x05,0x00
00193a  d48c              DCW      0xd48c
                          DCD      0x00000200
001940  0500              DCB      0x05,0x00
001942  d48e              DCW      0xd48e
                          DCD      0x00000af6
001948  0500              DCB      0x05,0x00
00194a  d490              DCW      0xd490
                          DCD      0x00000440
001950  0500              DCB      0x05,0x00
001952  d492              DCW      0xd492
                          DCD      0x00000c22
001958  0500              DCB      0x05,0x00
00195a  d494              DCW      0xd494
                          DCD      0x00000400
001960  0500              DCB      0x05,0x00
001962  d496              DCW      0xd496
                          DCD      0x00000d72
001968  0500              DCB      0x05,0x00
00196a  d498              DCW      0xd498
                          DCD      0x00000440
001970  0500              DCB      0x05,0x00
001972  d49a              DCW      0xd49a
                          DCD      0x00000dc2
001978  0500              DCB      0x05,0x00
00197a  d49c              DCW      0xd49c
                          DCD      0x00000200
001980  0500              DCB      0x05,0x00
001982  d49e              DCW      0xd49e
                          DCD      0x00000972
001988  0500              DCB      0x05,0x00
00198a  d4a0              DCW      0xd4a0
                          DCD      0x00000440
001990  0500              DCB      0x05,0x00
001992  d4a2              DCW      0xd4a2
                          DCD      0x00000d3a
001998  0500              DCB      0x05,0x00
00199a  d4a4              DCW      0xd4a4
                          DCD      0x00000220
0019a0  0500              DCB      0x05,0x00
0019a2  d4a6              DCW      0xd4a6
                          DCD      0x0000d820
0019a8  0500              DCB      0x05,0x00
0019aa  d4a8              DCW      0xd4a8
                          DCD      0x00000bfa
0019b0  0500              DCB      0x05,0x00
0019b2  d4aa              DCW      0xd4aa
                          DCD      0x00000260
0019b8  0500              DCB      0x05,0x00
0019ba  d4ac              DCW      0xd4ac
                          DCD      0x000070c9
0019c0  0500              DCB      0x05,0x00
0019c2  d4ae              DCW      0xd4ae
                          DCD      0x00000451
0019c8  0500              DCB      0x05,0x00
0019ca  d4b0              DCW      0xd4b0
                          DCD      0x000005c0
0019d0  0500              DCB      0x05,0x00
0019d2  d4b2              DCW      0xd4b2
                          DCD      0x000078e0
0019d8  0500              DCB      0x05,0x00
0019da  d4b4              DCW      0xd4b4
                          DCD      0x0000d900
0019e0  0500              DCB      0x05,0x00
0019e2  d4b6              DCW      0xd4b6
                          DCD      0x0000f00a
0019e8  0500              DCB      0x05,0x00
0019ea  d4b8              DCW      0xd4b8
                          DCD      0x000070cf
0019f0  0500              DCB      0x05,0x00
0019f2  d4ba              DCW      0xd4ba
                          DCD      0x0000ffff
0019f8  0500              DCB      0x05,0x00
0019fa  d4bc              DCW      0xd4bc
                          DCD      0x0000d520
001a00  0500              DCB      0x05,0x00
001a02  d4be              DCW      0xd4be
                          DCD      0x00007835
001a08  0500              DCB      0x05,0x00
001a0a  d4c0              DCW      0xd4c0
                          DCD      0x00008041
001a10  0500              DCB      0x05,0x00
001a12  d4c2              DCW      0xd4c2
                          DCD      0x00008000
001a18  0500              DCB      0x05,0x00
001a1a  d4c4              DCW      0xd4c4
                          DCD      0x0000e102
001a20  0500              DCB      0x05,0x00
001a22  d4c6              DCW      0xd4c6
                          DCD      0x0000a040
001a28  0500              DCB      0x05,0x00
001a2a  d4c8              DCW      0xd4c8
                          DCD      0x000009f1
001a30  0500              DCB      0x05,0x00
001a32  d4ca              DCW      0xd4ca
                          DCD      0x00008114
001a38  0500              DCB      0x05,0x00
001a3a  d4cc              DCW      0xd4cc
                          DCD      0x000071cf
001a40  0500              DCB      0x05,0x00
001a42  d4ce              DCW      0xd4ce
                          DCD      0x0000ffff
001a48  0500              DCB      0x05,0x00
001a4a  d4d0              DCW      0xd4d0
                          DCD      0x0000d4e0
001a50  0500              DCB      0x05,0x00
001a52  d4d2              DCW      0xd4d2
                          DCD      0x000070cf
001a58  0500              DCB      0x05,0x00
001a5a  d4d4              DCW      0xd4d4
                          DCD      0x0000ffff
001a60  0500              DCB      0x05,0x00
001a62  d4d6              DCW      0xd4d6
                          DCD      0x0000c594
001a68  0500              DCB      0x05,0x00
001a6a  d4d8              DCW      0xd4d8
                          DCD      0x0000b03a
001a70  0500              DCB      0x05,0x00
001a72  d4da              DCW      0xd4da
                          DCD      0x00007fe0
001a78  0500              DCB      0x05,0x00
001a7a  d4dc              DCW      0xd4dc
                          DCD      0x0000d800
001a80  0500              DCB      0x05,0x00
001a82  d4de              DCW      0xd4de
                          DCD      0x00000000
001a88  0500              DCB      0x05,0x00
001a8a  d4e0              DCW      0xd4e0
                          DCD      0x00000000
001a90  0500              DCB      0x05,0x00
001a92  d4e2              DCW      0xd4e2
                          DCD      0x00000500
001a98  0500              DCB      0x05,0x00
001a9a  d4e4              DCW      0xd4e4
                          DCD      0x00000500
001aa0  0500              DCB      0x05,0x00
001aa2  d4e6              DCW      0xd4e6
                          DCD      0x00000200
001aa8  0500              DCB      0x05,0x00
001aaa  d4e8              DCW      0xd4e8
                          DCD      0x00000330
001ab0  0500              DCB      0x05,0x00
001ab2  d4ea              DCW      0xd4ea
                          DCD      0x00000000
001ab8  0500              DCB      0x05,0x00
001aba  d4ec              DCW      0xd4ec
                          DCD      0x00000000
001ac0  0500              DCB      0x05,0x00
001ac2  d4ee              DCW      0xd4ee
                          DCD      0x000003cd
001ac8  0500              DCB      0x05,0x00
001aca  d4f0              DCW      0xd4f0
                          DCD      0x0000050d
001ad0  0500              DCB      0x05,0x00
001ad2  d4f2              DCW      0xd4f2
                          DCD      0x000001c5
001ad8  0500              DCB      0x05,0x00
001ada  d4f4              DCW      0xd4f4
                          DCD      0x000003b3
001ae0  0500              DCB      0x05,0x00
001ae2  d4f6              DCW      0xd4f6
                          DCD      0x000000e0
001ae8  0500              DCB      0x05,0x00
001aea  d4f8              DCW      0xd4f8
                          DCD      0x000001e3
001af0  0500              DCB      0x05,0x00
001af2  d4fa              DCW      0xd4fa
                          DCD      0x00000280
001af8  0500              DCB      0x05,0x00
001afa  d4fc              DCW      0xd4fc
                          DCD      0x000001e0
001b00  0500              DCB      0x05,0x00
001b02  d4fe              DCW      0xd4fe
                          DCD      0x00000109
001b08  0500              DCB      0x05,0x00
001b0a  d500              DCW      0xd500
                          DCD      0x00000080
001b10  0500              DCB      0x05,0x00
001b12  d502              DCW      0xd502
                          DCD      0x00000500
001b18  0500              DCB      0x05,0x00
001b1a  d504              DCW      0xd504
                          DCD      0x00000000
001b20  0500              DCB      0x05,0x00
001b22  d506              DCW      0xd506
                          DCD      0x00000000
001b28  0500              DCB      0x05,0x00
001b2a  d508              DCW      0xd508
                          DCD      0x00000000
001b30  0500              DCB      0x05,0x00
001b32  d50a              DCW      0xd50a
                          DCD      0x00000000
001b38  0500              DCB      0x05,0x00
001b3a  d50c              DCW      0xd50c
                          DCD      0x00000000
001b40  0500              DCB      0x05,0x00
001b42  d50e              DCW      0xd50e
                          DCD      0x00000000
001b48  0500              DCB      0x05,0x00
001b4a  d510              DCW      0xd510
                          DCD      0x00000000
001b50  0500              DCB      0x05,0x00
001b52  d512              DCW      0xd512
                          DCD      0x00000000
001b58  0500              DCB      0x05,0x00
001b5a  d514              DCW      0xd514
                          DCD      0x00000000
001b60  0500              DCB      0x05,0x00
001b62  d516              DCW      0xd516
                          DCD      0x00000000
001b68  0500              DCB      0x05,0x00
001b6a  d518              DCW      0xd518
                          DCD      0x00000000
001b70  0500              DCB      0x05,0x00
001b72  d51a              DCW      0xd51a
                          DCD      0x00000000
001b78  0500              DCB      0x05,0x00
001b7a  d51c              DCW      0xd51c
                          DCD      0x00000000
001b80  0500              DCB      0x05,0x00
001b82  d51e              DCW      0xd51e
                          DCD      0x00000000
001b88  0500              DCB      0x05,0x00
001b8a  d520              DCW      0xd520
                          DCD      0x0000ffff
001b90  0500              DCB      0x05,0x00
001b92  d522              DCW      0xd522
                          DCD      0x0000c9b4
001b98  0500              DCB      0x05,0x00
001b9a  d524              DCW      0xd524
                          DCD      0x0000ffff
001ba0  0500              DCB      0x05,0x00
001ba2  d526              DCW      0xd526
                          DCD      0x0000d324
001ba8  0500              DCB      0x05,0x00
001baa  d528              DCW      0xd528
                          DCD      0x0000ffff
001bb0  0500              DCB      0x05,0x00
001bb2  d52a              DCW      0xd52a
                          DCD      0x0000ca34
001bb8  0500              DCB      0x05,0x00
001bba  d52c              DCW      0xd52c
                          DCD      0x0000ffff
001bc0  0500              DCB      0x05,0x00
001bc2  d52e              DCW      0xd52e
                          DCD      0x0000d3ec
001bc8  0500              DCB      0x05,0x00
001bca  098e              DCW      0x098e
                          DCD      0x00000000
001bd0  0500              DCB      0x05,0x00
001bd2  e000              DCW      0xe000
                          DCD      0x000004b4
001bd8  0500              DCB      0x05,0x00
001bda  e002              DCW      0xe002
                          DCD      0x00000302
001be0  0600              DCB      0x06,0x00
001be2  e004              DCW      0xe004
                          DCD      0x41030202
001be8  0300              DCB      0x03,0x00
001bea  0000              DCW      0x0000
                          DCD      0x00000000
001bf0  0500              DCB      0x05,0x00
001bf2  098e              DCW      0x098e
                          DCD      0x00000000
001bf8  0500              DCB      0x05,0x00
001bfa  c892              DCW      0xc892
                          DCD      0x000001f5
001c00  0500              DCB      0x05,0x00
001c02  c894              DCW      0xc894
                          DCD      0x0000ff85
001c08  0500              DCB      0x05,0x00
001c0a  c896              DCW      0xc896
                          DCD      0x0000ff85
001c10  0500              DCB      0x05,0x00
001c12  c898              DCW      0xc898
                          DCD      0x0000ff85
001c18  0500              DCB      0x05,0x00
001c1a  c89a              DCW      0xc89a
                          DCD      0x0000012a
001c20  0500              DCB      0x05,0x00
001c22  c89c              DCW      0xc89c
                          DCD      0x00000051
001c28  0500              DCB      0x05,0x00
001c2a  c89e              DCW      0xc89e
                          DCD      0x0000ff98
001c30  0500              DCB      0x05,0x00
001c32  c8a0              DCW      0xc8a0
                          DCD      0x0000feb4
001c38  0500              DCB      0x05,0x00
001c3a  c8a2              DCW      0xc8a2
                          DCD      0x000002b4
001c40  0500              DCB      0x05,0x00
001c42  c8c8              DCW      0xc8c8
                          DCD      0x00000074
001c48  0500              DCB      0x05,0x00
001c4a  c8ca              DCW      0xc8ca
                          DCD      0x0000011e
001c50  0500              DCB      0x05,0x00
001c52  c8a4              DCW      0xc8a4
                          DCD      0x00000226
001c58  0500              DCB      0x05,0x00
001c5a  c8a6              DCW      0xc8a6
                          DCD      0x0000ff38
001c60  0500              DCB      0x05,0x00
001c62  c8a8              DCW      0xc8a8
                          DCD      0x0000ffa2
001c68  0500              DCB      0x05,0x00
001c6a  c8aa              DCW      0xc8aa
                          DCD      0x0000ff8d
001c70  0500              DCB      0x05,0x00
001c72  c8ac              DCW      0xc8ac
                          DCD      0x00000145
001c78  0500              DCB      0x05,0x00
001c7a  c8ae              DCW      0xc8ae
                          DCD      0x0000002e
001c80  0500              DCB      0x05,0x00
001c82  c8b0              DCW      0xc8b0
                          DCD      0x0000ffcb
001c88  0500              DCB      0x05,0x00
001c8a  c8b2              DCW      0xc8b2
                          DCD      0x0000ff17
001c90  0500              DCB      0x05,0x00
001c92  c8b4              DCW      0xc8b4
                          DCD      0x0000021e
001c98  0500              DCB      0x05,0x00
001c9a  c8cc              DCW      0xc8cc
                          DCD      0x00000095
001ca0  0500              DCB      0x05,0x00
001ca2  c8ce              DCW      0xc8ce
                          DCD      0x00000100
001ca8  0500              DCB      0x05,0x00
001caa  c8b6              DCW      0xc8b6
                          DCD      0x0000021e
001cb0  0500              DCB      0x05,0x00
001cb2  c8b8              DCW      0xc8b8
                          DCD      0x0000ff2d
001cb8  0500              DCB      0x05,0x00
001cba  c8ba              DCW      0xc8ba
                          DCD      0x0000ffb5
001cc0  0500              DCB      0x05,0x00
001cc2  c8bc              DCW      0xc8bc
                          DCD      0x0000ff9c
001cc8  0500              DCB      0x05,0x00
001cca  c8be              DCW      0xc8be
                          DCD      0x00000183
001cd0  0500              DCB      0x05,0x00
001cd2  c8c0              DCW      0xc8c0
                          DCD      0x0000ffe0
001cd8  0500              DCB      0x05,0x00
001cda  c8c2              DCW      0xc8c2
                          DCD      0x0000fff4
001ce0  0500              DCB      0x05,0x00
001ce2  c8c4              DCW      0xc8c4
                          DCD      0x0000ff78
001ce8  0500              DCB      0x05,0x00
001cea  c8c6              DCW      0xc8c6
                          DCD      0x00000194
001cf0  0500              DCB      0x05,0x00
001cf2  c8d0              DCW      0xc8d0
                          DCD      0x000000b3
001cf8  0500              DCB      0x05,0x00
001cfa  c8d2              DCW      0xc8d2
                          DCD      0x0000008d
001d00  0500              DCB      0x05,0x00
001d02  c8d4              DCW      0xc8d4
                          DCD      0x000009c4
001d08  0500              DCB      0x05,0x00
001d0a  c8d6              DCW      0xc8d6
                          DCD      0x00000d67
001d10  0500              DCB      0x05,0x00
001d12  c8d8              DCW      0xc8d8
                          DCD      0x00001964
001d18  0500              DCB      0x05,0x00
001d1a  c8ec              DCW      0xc8ec
                          DCD      0x000009c4
001d20  0500              DCB      0x05,0x00
001d22  c8ee              DCW      0xc8ee
                          DCD      0x00001964
001d28  0400              DCB      0x04,0x00
001d2a  c8f2              DCW      0xc8f2
                          DCD      0x00000003
001d30  0400              DCB      0x04,0x00
001d32  c8f3              DCW      0xc8f3
                          DCD      0x00000002
001d38  0500              DCB      0x05,0x00
001d3a  c8f4              DCW      0xc8f4
                          DCD      0x0000f800
001d40  0500              DCB      0x05,0x00
001d42  c8f6              DCW      0xc8f6
                          DCD      0x0000a800
001d48  0500              DCB      0x05,0x00
001d4a  c8f8              DCW      0xc8f8
                          DCD      0x00005400
001d50  0500              DCB      0x05,0x00
001d52  c8fa              DCW      0xc8fa
                          DCD      0x00001b80
001d58  0500              DCB      0x05,0x00
001d5a  c8fc              DCW      0xc8fc
                          DCD      0x00000dc0
001d60  0500              DCB      0x05,0x00
001d62  c8fe              DCW      0xc8fe
                          DCD      0x00000000
001d68  0500              DCB      0x05,0x00
001d6a  c900              DCW      0xc900
                          DCD      0x00000000
001d70  0500              DCB      0x05,0x00
001d72  c902              DCW      0xc902
                          DCD      0x00000000
001d78  0500              DCB      0x05,0x00
001d7a  c904              DCW      0xc904
                          DCD      0x00000030
001d80  0500              DCB      0x05,0x00
001d82  c906              DCW      0xc906
                          DCD      0x0000002a
001d88  0500              DCB      0x05,0x00
001d8a  c926              DCW      0xc926
                          DCD      0x00000020
001d90  0500              DCB      0x05,0x00
001d92  c928              DCW      0xc928
                          DCD      0x0000009a
001d98  0500              DCB      0x05,0x00
001d9a  c946              DCW      0xc946
                          DCD      0x00000070
001da0  0500              DCB      0x05,0x00
001da2  c948              DCW      0xc948
                          DCD      0x000000f3
001da8  0500              DCB      0x05,0x00
001daa  c952              DCW      0xc952
                          DCD      0x00000020
001db0  0500              DCB      0x05,0x00
001db2  c954              DCW      0xc954
                          DCD      0x0000009a
001db8  0400              DCB      0x04,0x00
001dba  c92a              DCW      0xc92a
                          DCD      0x00000080
001dc0  0400              DCB      0x04,0x00
001dc2  c92b              DCW      0xc92b
                          DCD      0x0000004b
001dc8  0400              DCB      0x04,0x00
001dca  c92c              DCW      0xc92c
                          DCD      0x00000000
001dd0  0400              DCB      0x04,0x00
001dd2  c92d              DCW      0xc92d
                          DCD      0x000000ff
001dd8  0400              DCB      0x04,0x00
001dda  c92e              DCW      0xc92e
                          DCD      0x0000003c
001de0  0400              DCB      0x04,0x00
001de2  c92f              DCW      0xc92f
                          DCD      0x00000002
001de8  0400              DCB      0x04,0x00
001dea  c930              DCW      0xc930
                          DCD      0x00000006
001df0  0400              DCB      0x04,0x00
001df2  c931              DCW      0xc931
                          DCD      0x00000064
001df8  0400              DCB      0x04,0x00
001dfa  c932              DCW      0xc932
                          DCD      0x00000001
001e00  0400              DCB      0x04,0x00
001e02  c933              DCW      0xc933
                          DCD      0x0000000c
001e08  0400              DCB      0x04,0x00
001e0a  c934              DCW      0xc934
                          DCD      0x0000003c
001e10  0400              DCB      0x04,0x00
001e12  c935              DCW      0xc935
                          DCD      0x0000003c
001e18  0400              DCB      0x04,0x00
001e1a  c936              DCW      0xc936
                          DCD      0x0000003c
001e20  0400              DCB      0x04,0x00
001e22  c937              DCW      0xc937
                          DCD      0x0000000f
001e28  0400              DCB      0x04,0x00
001e2a  c938              DCW      0xc938
                          DCD      0x00000064
001e30  0400              DCB      0x04,0x00
001e32  c939              DCW      0xc939
                          DCD      0x00000064
001e38  0400              DCB      0x04,0x00
001e3a  c93a              DCW      0xc93a
                          DCD      0x00000064
001e40  0400              DCB      0x04,0x00
001e42  c93b              DCW      0xc93b
                          DCD      0x00000032
001e48  0500              DCB      0x05,0x00
001e4a  c93c              DCW      0xc93c
                          DCD      0x00000020
001e50  0500              DCB      0x05,0x00
001e52  c93e              DCW      0xc93e
                          DCD      0x0000009a
001e58  0500              DCB      0x05,0x00
001e5a  c940              DCW      0xc940
                          DCD      0x00000096
001e60  0400              DCB      0x04,0x00
001e62  c942              DCW      0xc942
                          DCD      0x00000038
001e68  0400              DCB      0x04,0x00
001e6a  c943              DCW      0xc943
                          DCD      0x00000030
001e70  0400              DCB      0x04,0x00
001e72  c944              DCW      0xc944
                          DCD      0x00000050
001e78  0400              DCB      0x04,0x00
001e7a  c945              DCW      0xc945
                          DCD      0x00000019
001e80  0500              DCB      0x05,0x00
001e82  c94a              DCW      0xc94a
                          DCD      0x00000230
001e88  0500              DCB      0x05,0x00
001e8a  c94c              DCW      0xc94c
                          DCD      0x00000010
001e90  0500              DCB      0x05,0x00
001e92  c94e              DCW      0xc94e
                          DCD      0x000001cd
001e98  0400              DCB      0x04,0x00
001e9a  c950              DCW      0xc950
                          DCD      0x00000005
001ea0  0400              DCB      0x04,0x00
001ea2  c951              DCW      0xc951
                          DCD      0x00000040
001ea8  0400              DCB      0x04,0x00
001eaa  c87b              DCW      0xc87b
                          DCD      0x0000001b
001eb0  0500              DCB      0x05,0x00
001eb2  c890              DCW      0xc890
                          DCD      0x00000080
001eb8  0500              DCB      0x05,0x00
001eba  c87c              DCW      0xc87c
                          DCD      0x0000005a
001ec0  0400              DCB      0x04,0x00
001ec2  b42a              DCW      0xb42a
                          DCD      0x00000005
001ec8  0400              DCB      0x04,0x00
001eca  a80a              DCW      0xa80a
                          DCD      0x00000020
001ed0  0500              DCB      0x05,0x00
001ed2  a802              DCW      0xa802
                          DCD      0x00000008
001ed8  0400              DCB      0x04,0x00
001eda  c908              DCW      0xc908
                          DCD      0x00000001
001ee0  0400              DCB      0x04,0x00
001ee2  c879              DCW      0xc879
                          DCD      0x00000001
001ee8  0400              DCB      0x04,0x00
001eea  c909              DCW      0xc909
                          DCD      0x00000002
001ef0  0400              DCB      0x04,0x00
001ef2  a80a              DCW      0xa80a
                          DCD      0x00000018
001ef8  0400              DCB      0x04,0x00
001efa  a80b              DCW      0xa80b
                          DCD      0x00000018
001f00  0400              DCB      0x04,0x00
001f02  ac16              DCW      0xac16
                          DCD      0x00000018
001f08  0400              DCB      0x04,0x00
001f0a  bc07              DCW      0xbc07
                          DCD      0x00000002
001f10  0500              DCB      0x05,0x00
001f12  301a              DCW      0x301a
                          DCD      0x00000234
001f18  0500              DCB      0x05,0x00
001f1a  c87c              DCW      0xc87c
                          DCD      0x0000005a
001f20  0400              DCB      0x04,0x00
001f22  cc00              DCW      0xcc00
                          DCD      0x00000008
001f28  0500              DCB      0x05,0x00
001f2a  c984              DCW      0xc984
                          DCD      0x00008000
001f30  0500              DCB      0x05,0x00
001f32  001e              DCW      0x001e
                          DCD      0x00000755
001f38  0200              DCB      0x02,0x00
001f3a  0000              DCW      0x0000
                          DCD      0x00000000
001f40  0000              DCB      0x00,0x00
001f42  0000              DCW      0x0000
                          DCD      0x00000000

                          AREA ||.conststring||, DATA, READONLY, MERGE=1, STRINGS, ALIGN=2

000000  63616d5f          DCB      "cam_setMode",0
000004  7365744d
000008  6f646500
00000c  53657420          DCB      "Set camera mode@p mode 0=25 FPS, 1280x800; 1=50 FPS, 64"
000010  63616d65
000014  7261206d
000018  6f646540
00001c  70206d6f
000020  64652030
000024  3d323520
000028  4650532c
00002c  20313238
000030  30783830
000034  303b2031
000038  3d353020
00003c  4650532c
000040  203634  
000043  30783430          DCB      "0x400@r 0 if success, negative if error",0
000047  30407220
00004b  30206966
00004f  20737563
000053  63657373
000057  2c206e65
00005b  67617469
00005f  76652069
000063  66206572
000067  726f7200
00006b  00                DCB      0
00006c  63616d5f          DCB      "cam_getMode",0
000070  6765744d
000074  6f646500
000078  47657420          DCB      "Get camera mode@r mode value",0
00007c  63616d65
000080  7261206d
000084  6f646540
000088  72206d6f
00008c  64652076
000090  616c7565
000094  00      
000095  00                DCB      0
000096  00                DCB      0
000097  00                DCB      0
000098  63616d5f          DCB      "cam_setAWB",0
00009c  73657441
0000a0  574200  
0000a3  00                DCB      0
0000a4  456e6162          DCB      "Enable/disable Auto White Balance (AWB)@p enable (bool)"
0000a8  6c652f64
0000ac  69736162
0000b0  6c652041
0000b4  75746f20
0000b8  57686974
0000bc  65204261
0000c0  6c616e63
0000c4  65202841
0000c8  57422940
0000cc  7020656e
0000d0  61626c65
0000d4  2028626f
0000d8  6f6c29  
0000db  20303d64          DCB      " 0=disable, 1=enable@r 0 if success, negative if error",0
0000df  69736162
0000e3  6c652c20
0000e7  313d656e
0000eb  61626c65
0000ef  40722030
0000f3  20696620
0000f7  73756363
0000fb  6573732c
0000ff  206e6567
000103  61746976
000107  65206966
00010b  20657272
00010f  6f7200  
000112  00                DCB      0
000113  00                DCB      0
000114  63616d5f          DCB      "cam_getAWB",0
000118  67657441
00011c  574200  
00011f  00                DCB      0
000120  47657420          DCB      "Get Auto White Balance (AWB) enable@r (bool) enable val"
000124  4175746f
000128  20576869
00012c  74652042
000130  616c616e
000134  63652028
000138  41574229
00013c  20656e61
000140  626c6540
000144  72202862
000148  6f6f6c29
00014c  20656e61
000150  626c6520
000154  76616c  
000157  756500            DCB      "ue",0
00015a  00                DCB      0
00015b  00                DCB      0
00015c  63616d5f          DCB      "cam_setWBV",0
000160  73657457
000164  425600  
000167  00                DCB      0
000168  53657420          DCB      "Set White Balance Value (WBV)@p wbv white balance value"
00016c  57686974
000170  65204261
000174  6c616e63
000178  65205661
00017c  6c756520
000180  28574256
000184  29407020
000188  77627620
00018c  77686974
000190  65206261
000194  6c616e63
000198  65207661
00019c  6c7565  
00019f  40722030          DCB      "@r 0 if success, negative if error",0
0001a3  20696620
0001a7  73756363
0001ab  6573732c
0001af  206e6567
0001b3  61746976
0001b7  65206966
0001bb  20657272
0001bf  6f7200  
0001c2  00                DCB      0
0001c3  00                DCB      0
0001c4  63616d5f          DCB      "cam_getWBV",0
0001c8  67657457
0001cc  425600  
0001cf  00                DCB      0
0001d0  47657420          DCB      "Get White Balance Value (WBV)@r white balance value",0
0001d4  57686974
0001d8  65204261
0001dc  6c616e63
0001e0  65205661
0001e4  6c756520
0001e8  28574256
0001ec  29407220
0001f0  77686974
0001f4  65206261
0001f8  6c616e63
0001fc  65207661
000200  6c756500
000204  63616d5f          DCB      "cam_setAEC",0
000208  73657441
00020c  454300  
00020f  00                DCB      0
000210  53657420          DCB      "Set Auto Exposure Compensation (AEC)@p enable (bool) 0="
000214  4175746f
000218  20457870
00021c  6f737572
000220  6520436f
000224  6d70656e
000228  73617469
00022c  6f6e2028
000230  41454329
000234  40702065
000238  6e61626c
00023c  65202862
000240  6f6f6c29
000244  20303d  
000247  64697361          DCB      "disable, 1=enable@r 0 if success, negative if error",0
00024b  626c652c
00024f  20313d65
000253  6e61626c
000257  65407220
00025b  30206966
00025f  20737563
000263  63657373
000267  2c206e65
00026b  67617469
00026f  76652069
000273  66206572
000277  726f7200
00027b  00                DCB      0
00027c  63616d5f          DCB      "cam_getAEC",0
000280  67657441
000284  454300  
000287  00                DCB      0
000288  47657420          DCB      "Get Auto Exposure Compensation (AEC)@r (bool) enable va"
00028c  4175746f
000290  20457870
000294  6f737572
000298  6520436f
00029c  6d70656e
0002a0  73617469
0002a4  6f6e2028
0002a8  41454329
0002ac  40722028
0002b0  626f6f6c
0002b4  2920656e
0002b8  61626c65
0002bc  207661  
0002bf  6c756500          DCB      "lue",0
0002c3  00                DCB      0
0002c4  63616d5f          DCB      "cam_setECV",0
0002c8  73657445
0002cc  435600  
0002cf  00                DCB      0
0002d0  53657420          DCB      "Set Exposure Compensation Value (ECV)@p exposure compen"
0002d4  4578706f
0002d8  73757265
0002dc  20436f6d
0002e0  70656e73
0002e4  6174696f
0002e8  6e205661
0002ec  6c756520
0002f0  28454356
0002f4  29407020
0002f8  6578706f
0002fc  73757265
000300  20636f6d
000304  70656e  
000307  73617469          DCB      "sation value@r 0 if success, negative if error",0
00030b  6f6e2076
00030f  616c7565
000313  40722030
000317  20696620
00031b  73756363
00031f  6573732c
000323  206e6567
000327  61746976
00032b  65206966
00032f  20657272
000333  6f7200  
000336  00                DCB      0
000337  00                DCB      0
000338  63616d5f          DCB      "cam_getECV",0
00033c  67657445
000340  435600  
000343  00                DCB      0
000344  47657420          DCB      "Get Exposure Compensation Value (ECV)@r exposure compen"
000348  4578706f
00034c  73757265
000350  20436f6d
000354  70656e73
000358  6174696f
00035c  6e205661
000360  6c756520
000364  28454356
000368  29407220
00036c  6578706f
000370  73757265
000374  20636f6d
000378  70656e  
00037b  73617469          DCB      "sation value",0
00037f  6f6e2076
000383  616c7565
000387  00      
000388  63616d5f          DCB      "cam_setBrightness",0
00038c  73657442
000390  72696768
000394  746e6573
000398  7300    
00039a  00                DCB      0
00039b  00                DCB      0
00039c  53657420          DCB      "Set brightness value to increase or decrease exposure ("
0003a0  62726967
0003a4  68746e65
0003a8  73732076
0003ac  616c7565
0003b0  20746f20
0003b4  696e6372
0003b8  65617365
0003bc  206f7220
0003c0  64656372
0003c4  65617365
0003c8  20657870
0003cc  6f737572
0003d0  652028  
0003d3  6f6e6c79          DCB      "only applies when AEC is enabled)@p brightness value be"
0003d7  20617070
0003db  6c696573
0003df  20776865
0003e3  6e204145
0003e7  43206973
0003eb  20656e61
0003ef  626c6564
0003f3  29407020
0003f7  62726967
0003fb  68746e65
0003ff  73732076
000403  616c7565
000407  206265  
00040a  74776565          DCB      "tween 0 and 255@r 0 if success, negative if error",0
00040e  6e203020
000412  616e6420
000416  32353540
00041a  72203020
00041e  69662073
000422  75636365
000426  73732c20
00042a  6e656761
00042e  74697665
000432  20696620
000436  6572726f
00043a  7200    
00043c  63616d5f          DCB      "cam_getBrightness",0
000440  67657442
000444  72696768
000448  746e6573
00044c  7300    
00044e  00                DCB      0
00044f  00                DCB      0
000450  47657420          DCB      "Get brightness value@r brightness value",0
000454  62726967
000458  68746e65
00045c  73732076
000460  616c7565
000464  40722062
000468  72696768
00046c  746e6573
000470  73207661
000474  6c756500
000478  63616d5f          DCB      "cam_setSaturation",0
00047c  73657453
000480  61747572
000484  6174696f
000488  6e00    
00048a  00                DCB      0
00048b  00                DCB      0
00048c  53657420          DCB      "Set color saturation value@p saturation value between 0"
000490  636f6c6f
000494  72207361
000498  74757261
00049c  74696f6e
0004a0  2076616c
0004a4  75654070
0004a8  20736174
0004ac  75726174
0004b0  696f6e20
0004b4  76616c75
0004b8  65206265
0004bc  74776565
0004c0  6e2030  
0004c3  20616e64          DCB      " and 255@r 0 if success, negative if error",0
0004c7  20323535
0004cb  40722030
0004cf  20696620
0004d3  73756363
0004d7  6573732c
0004db  206e6567
0004df  61746976
0004e3  65206966
0004e7  20657272
0004eb  6f7200  
0004ee  00                DCB      0
0004ef  00                DCB      0
0004f0  63616d5f          DCB      "cam_setFlickerAvoidance",0
0004f4  73657446
0004f8  6c69636b
0004fc  65724176
000500  6f696461
000504  6e636500
000508  53657420          DCB      "Set flicker avoidance@p enable (0) disabled (1) enabled"
00050c  666c6963
000510  6b657220
000514  61766f69
000518  64616e63
00051c  65407020
000520  656e6162
000524  6c652028
000528  30292064
00052c  69736162
000530  6c656420
000534  28312920
000538  656e6162
00053c  6c6564  
00053f  40722030          DCB      "@r 0 if success, negative if error",0
000543  20696620
000547  73756363
00054b  6573732c
00054f  206e6567
000553  61746976
000557  65206966
00055b  20657272
00055f  6f7200  
000562  00                DCB      0
000563  00                DCB      0
000564  63616d5f          DCB      "cam_testPattern",0
000568  74657374
00056c  50617474
000570  65726e00
000574  53657420          DCB      "Set test pattern display@p enable (0) normal mode (1) t"
000578  74657374
00057c  20706174
000580  7465726e
000584  20646973
000588  706c6179
00058c  40702065
000590  6e61626c
000594  65202830
000598  29206e6f
00059c  726d616c
0005a0  206d6f64
0005a4  65202831
0005a8  292074  
0005ab  65737420          DCB      "est pattern@r always returns 0",0
0005af  70617474
0005b3  65726e40
0005b7  7220616c
0005bb  77617973
0005bf  20726574
0005c3  75726e73
0005c7  203000  
0005ca  00                DCB      0
0005cb  00                DCB      0
0005cc  63616d5f          DCB      "cam_getFrame",0
0005d0  67657446
0005d4  72616d65
0005d8  00      
0005d9  00                DCB      0
0005da  00                DCB      0
0005db  00                DCB      0
0005dc  47657420          DCB      "Get a frame from the camera@p mode one of the following"
0005e0  61206672
0005e4  616d6520
0005e8  66726f6d
0005ec  20746865
0005f0  2063616d
0005f4  65726140
0005f8  70206d6f
0005fc  6465206f
000600  6e65206f
000604  66207468
000608  6520666f
00060c  6c6c6f77
000610  696e67  
000613  2043414d          DCB      " CAM_GRAB_M0R0 (0x00), CAM_GRAB_M1R1 (0x11), CAM_GRAB_M"
000617  5f475241
00061b  425f4d30
00061f  52302028
000623  30783030
000627  292c2043
00062b  414d5f47
00062f  5241425f
000633  4d315231
000637  20283078
00063b  3131292c
00063f  2043414d
000643  5f475241
000647  425f4d  
00064a  31523220          DCB      "1R2 (0x21)@p xOffset x offset counting from left@p yOff"
00064e  28307832
000652  31294070
000656  20784f66
00065a  66736574
00065e  2078206f
000662  66667365
000666  7420636f
00066a  756e7469
00066e  6e672066
000672  726f6d20
000676  6c656674
00067a  40702079
00067e  4f6666  
000681  73657420          DCB      "set y offset counting from top@p width width of frame@p"
000685  79206f66
000689  66736574
00068d  20636f75
000691  6e74696e
000695  67206672
000699  6f6d2074
00069d  6f704070
0006a1  20776964
0006a5  74682077
0006a9  69647468
0006ad  206f6620
0006b1  6672616d
0006b5  654070  
0006b8  20686569          DCB      " height height of frame@r 0 if success, negative if err"
0006bc  67687420
0006c0  68656967
0006c4  6874206f
0006c8  66206672
0006cc  616d6540
0006d0  72203020
0006d4  69662073
0006d8  75636365
0006dc  73732c20
0006e0  6e656761
0006e4  74697665
0006e8  20696620
0006ec  657272  
0006ef  6f724072          DCB      "or@r BA81 formatted data",0
0006f3  20424138
0006f7  3120666f
0006fb  726d6174
0006ff  74656420
000703  64617461
000707  00      
000708  63616d5f          DCB      "cam_setReg8",0
00070c  73657452
000710  65673800
000714  57726974          DCB      "Write an 8-bit SCCB register value on the camera chip@p"
000718  6520616e
00071c  20382d62
000720  69742053
000724  43434220
000728  72656769
00072c  73746572
000730  2076616c
000734  7565206f
000738  6e207468
00073c  65206361
000740  6d657261
000744  20636869
000748  704070  
00074b  20616464          DCB      " address register address@p value register value to set"
00074f  72657373
000753  20726567
000757  69737465
00075b  72206164
00075f  64726573
000763  73407020
000767  76616c75
00076b  65207265
00076f  67697374
000773  65722076
000777  616c7565
00077b  20746f20
00077f  736574  
000782  40722030          DCB      "@r 0 if success, negative if error",0
000786  20696620
00078a  73756363
00078e  6573732c
000792  206e6567
000796  61746976
00079a  65206966
00079e  20657272
0007a2  6f7200  
0007a5  00                DCB      0
0007a6  00                DCB      0
0007a7  00                DCB      0
0007a8  63616d5f          DCB      "cam_setReg16",0
0007ac  73657452
0007b0  65673136
0007b4  00      
0007b5  00                DCB      0
0007b6  00                DCB      0
0007b7  00                DCB      0
0007b8  57726974          DCB      "Write an 16-bit SCCB register value on the camera chip@"
0007bc  6520616e
0007c0  2031362d
0007c4  62697420
0007c8  53434342
0007cc  20726567
0007d0  69737465
0007d4  72207661
0007d8  6c756520
0007dc  6f6e2074
0007e0  68652063
0007e4  616d6572
0007e8  61206368
0007ec  697040  
0007ef  70206164          DCB      "p address register address@p value register value to se"
0007f3  64726573
0007f7  73207265
0007fb  67697374
0007ff  65722061
000803  64647265
000807  73734070
00080b  2076616c
00080f  75652072
000813  65676973
000817  74657220
00081b  76616c75
00081f  6520746f
000823  207365  
000826  74407220          DCB      "t@r 0 if success, negative if error",0
00082a  30206966
00082e  20737563
000832  63657373
000836  2c206e65
00083a  67617469
00083e  76652069
000842  66206572
000846  726f7200
00084a  00                DCB      0
00084b  00                DCB      0
00084c  63616d5f          DCB      "cam_setReg32",0
000850  73657452
000854  65673332
000858  00      
000859  00                DCB      0
00085a  00                DCB      0
00085b  00                DCB      0
00085c  57726974          DCB      "Write an 32-bit SCCB register value on the camera chip@"
000860  6520616e
000864  2033322d
000868  62697420
00086c  53434342
000870  20726567
000874  69737465
000878  72207661
00087c  6c756520
000880  6f6e2074
000884  68652063
000888  616d6572
00088c  61206368
000890  697040  
000893  70206164          DCB      "p address register address@p value register value to se"
000897  64726573
00089b  73207265
00089f  67697374
0008a3  65722061
0008a7  64647265
0008ab  73734070
0008af  2076616c
0008b3  75652072
0008b7  65676973
0008bb  74657220
0008bf  76616c75
0008c3  6520746f
0008c7  207365  
0008ca  74407220          DCB      "t@r 0 if success, negative if error",0
0008ce  30206966
0008d2  20737563
0008d6  63657373
0008da  2c206e65
0008de  67617469
0008e2  76652069
0008e6  66206572
0008ea  726f7200
0008ee  00                DCB      0
0008ef  00                DCB      0
0008f0  63616d5f          DCB      "cam_getReg8",0
0008f4  67657452
0008f8  65673800
0008fc  52656164          DCB      "Read an 8-bit SCCB register on the camera chip@p addres"
000900  20616e20
000904  382d6269
000908  74205343
00090c  43422072
000910  65676973
000914  74657220
000918  6f6e2074
00091c  68652063
000920  616d6572
000924  61206368
000928  69704070
00092c  20616464
000930  726573  
000933  73207265          DCB      "s register address@r 0 register value",0
000937  67697374
00093b  65722061
00093f  64647265
000943  73734072
000947  20302072
00094b  65676973
00094f  74657220
000953  76616c75
000957  6500    
000959  00                DCB      0
00095a  00                DCB      0
00095b  00                DCB      0
00095c  63616d5f          DCB      "cam_getReg16",0
000960  67657452
000964  65673136
000968  00      
000969  00                DCB      0
00096a  00                DCB      0
00096b  00                DCB      0
00096c  52656164          DCB      "Read an 16-bit SCCB register on the camera chip@p addre"
000970  20616e20
000974  31362d62
000978  69742053
00097c  43434220
000980  72656769
000984  73746572
000988  206f6e20
00098c  74686520
000990  63616d65
000994  72612063
000998  68697040
00099c  70206164
0009a0  647265  
0009a3  73732072          DCB      "ss register address@r 0 register value",0
0009a7  65676973
0009ab  74657220
0009af  61646472
0009b3  65737340
0009b7  72203020
0009bb  72656769
0009bf  73746572
0009c3  2076616c
0009c7  756500  
0009ca  00                DCB      0
0009cb  00                DCB      0
0009cc  63616d5f          DCB      "cam_getReg32",0
0009d0  67657452
0009d4  65673332
0009d8  00      
0009d9  00                DCB      0
0009da  00                DCB      0
0009db  00                DCB      0
0009dc  52656164          DCB      "Read an 32-bit SCCB register on the camera chip@p addre"
0009e0  20616e20
0009e4  33322d62
0009e8  69742053
0009ec  43434220
0009f0  72656769
0009f4  73746572
0009f8  206f6e20
0009fc  74686520
000a00  63616d65
000a04  72612063
000a08  68697040
000a0c  70206164
000a10  647265  
000a13  73732072          DCB      "ss register address@r 0 register value",0
000a17  65676973
000a1b  74657220
000a1f  61646472
000a23  65737340
000a27  72203020
000a2b  72656769
000a2f  73746572
000a33  2076616c
000a37  756500  
000a3a  00                DCB      0
000a3b  00                DCB      0
000a3c  63616d5f          DCB      "cam_getFramePeriod",0
000a40  67657446
000a44  72616d65
000a48  50657269
000a4c  6f6400  
000a4f  00                DCB      0
000a50  52657475          DCB      "Return M0 frame period measured and updated after each "
000a54  726e204d
000a58  30206672
000a5c  616d6520
000a60  70657269
000a64  6f64206d
000a68  65617375
000a6c  72656420
000a70  616e6420
000a74  75706461
000a78  74656420
000a7c  61667465
000a80  72206561
000a84  636820  
000a87  6672616d          DCB      "frame grab@r frame period in microseconds",0
000a8b  65206772
000a8f  61624072
000a93  20667261
000a97  6d652070
000a9b  6572696f
000a9f  6420696e
000aa3  206d6963
000aa7  726f7365
000aab  636f6e64
000aaf  7300    
000ab1  00                DCB      0
000ab2  00                DCB      0
000ab3  00                DCB      0
000ab4  63616d5f          DCB      "cam_getBlankTime",0
000ab8  67657442
000abc  6c616e6b
000ac0  54696d65
000ac4  00      
000ac5  00                DCB      0
000ac6  00                DCB      0
000ac7  00                DCB      0
000ac8  52657475          DCB      "Return M0 blanking time measured and updated after each"
000acc  726e204d
000ad0  3020626c
000ad4  616e6b69
000ad8  6e672074
000adc  696d6520
000ae0  6d656173
000ae4  75726564
000ae8  20616e64
000aec  20757064
000af0  61746564
000af4  20616674
000af8  65722065
000afc  616368  
000aff  20667261          DCB      " frame grab@r blank time in microseconds",0
000b03  6d652067
000b07  72616240
000b0b  7220626c
000b0f  616e6b20
000b13  74696d65
000b17  20696e20
000b1b  6d696372
000b1f  6f736563
000b23  6f6e6473
000b27  00      
000b28  40632054          DCB      "@c Tuning @m 0 @M 255 Sets the average brightness of th"
000b2c  756e696e
000b30  6720406d
000b34  20302040
000b38  4d203235
000b3c  35205365
000b40  74732074
000b44  68652061
000b48  76657261
000b4c  67652062
000b50  72696768
000b54  746e6573
000b58  73206f66
000b5c  207468  
000b5f  65206361          DCB      "e camera, can be between 0 and 255 (default 50)",0
000b63  6d657261
000b67  2c206361
000b6b  6e206265
000b6f  20626574
000b73  7765656e
000b77  20302061
000b7b  6e642032
000b7f  35352028
000b83  64656661
000b87  756c7420
000b8b  35302900
000b8f  00                DCB      0
000b90  40632043          DCB      "@c Camera Enables/disables Auto Exposure Correction. (d"
000b94  616d6572
000b98  6120456e
000b9c  61626c65
000ba0  732f6469
000ba4  7361626c
000ba8  65732041
000bac  75746f20
000bb0  4578706f
000bb4  73757265
000bb8  20436f72
000bbc  72656374
000bc0  696f6e2e
000bc4  202864  
000bc7  65666175          DCB      "efault enabled)",0
000bcb  6c742065
000bcf  6e61626c
000bd3  65642900
000bd7  00                DCB      0
000bd8  40632054          DCB      "@c Tuning @m 0 @M 255 Sets the color saturation, can be"
000bdc  756e696e
000be0  6720406d
000be4  20302040
000be8  4d203235
000bec  35205365
000bf0  74732074
000bf4  68652063
000bf8  6f6c6f72
000bfc  20736174
000c00  75726174
000c04  696f6e2c
000c08  2063616e
000c0c  206265  
000c0f  20626574          DCB      " between 0 and 255 (default 90+40)",0
000c13  7765656e
000c17  20302061
000c1b  6e642032
000c1f  35352028
000c23  64656661
000c27  756c7420
000c2b  39302b34
000c2f  302900  
000c32  00                DCB      0
000c33  00                DCB      0
000c34  40632043          DCB      "@c Camera Enables/disables Auto White Balance. When thi"
000c38  616d6572
000c3c  6120456e
000c40  61626c65
000c44  732f6469
000c48  7361626c
000c4c  65732041
000c50  75746f20
000c54  57686974
000c58  65204261
000c5c  6c616e63
000c60  652e2057
000c64  68656e20
000c68  746869  
000c6b  73206973          DCB      "s is set, AWB is enabled continuously. (default disable"
000c6f  20736574
000c73  2c204157
000c77  42206973
000c7b  20656e61
000c7f  626c6564
000c83  20636f6e
000c87  74696e75
000c8b  6f75736c
000c8f  792e2028
000c93  64656661
000c97  756c7420
000c9b  64697361
000c9f  626c65  
000ca2  642900            DCB      "d)",0
000ca5  00                DCB      0
000ca6  00                DCB      0
000ca7  00                DCB      0
000ca8  40632043          DCB      "@c Camera Enables/disables Auto White Balance on power-"
000cac  616d6572
000cb0  6120456e
000cb4  61626c65
000cb8  732f6469
000cbc  7361626c
000cc0  65732041
000cc4  75746f20
000cc8  57686974
000ccc  65204261
000cd0  6c616e63
000cd4  65206f6e
000cd8  20706f77
000cdc  65722d  
000cdf  75702e20          DCB      "up. When this is set, AWB is enabled only upon power-up"
000ce3  5768656e
000ce7  20746869
000ceb  73206973
000cef  20736574
000cf3  2c204157
000cf7  42206973
000cfb  20656e61
000cff  626c6564
000d03  206f6e6c
000d07  79207570
000d0b  6f6e2070
000d0f  6f776572
000d13  2d7570  
000d16  2e202864          DCB      ". (default enabled)",0
000d1a  65666175
000d1e  6c742065
000d22  6e61626c
000d26  65642900
000d2a  00                DCB      0
000d2b  00                DCB      0
000d2c  40632043          DCB      "@c Camera Enables/disables flicker avoidance with indoo"
000d30  616d6572
000d34  6120456e
000d38  61626c65
000d3c  732f6469
000d40  7361626c
000d44  65732066
000d48  6c69636b
000d4c  65722061
000d50  766f6964
000d54  616e6365
000d58  20776974
000d5c  6820696e
000d60  646f6f  
000d63  72206c69          DCB      "r lighting that flickers at 50 or 60Hz.  Note, may caus"
000d67  67687469
000d6b  6e672074
000d6f  68617420
000d73  666c6963
000d77  6b657273
000d7b  20617420
000d7f  3530206f
000d83  72203630
000d87  487a2e20
000d8b  204e6f74
000d8f  652c206d
000d93  61792063
000d97  617573  
000d9a  65206f76          DCB      "e overexposure in outdoor setting when enabled (default"
000d9e  65726578
000da2  706f7375
000da6  72652069
000daa  6e206f75
000dae  74646f6f
000db2  72207365
000db6  7474696e
000dba  67207768
000dbe  656e2065
000dc2  6e61626c
000dc6  65642028
000dca  64656661
000dce  756c74  
000dd1  20646973          DCB      " disabled)",0
000dd5  61626c65
000dd9  642900  
000ddc  40632043          DCB      "@c Camera @m 2 @M 61 Sets the minimum frames per second"
000de0  616d6572
000de4  6120406d
000de8  20322040
000dec  4d203631
000df0  20536574
000df4  73207468
000df8  65206d69
000dfc  6e696d75
000e00  6d206672
000e04  616d6573
000e08  20706572
000e0c  20736563
000e10  6f6e64  
000e13  20286672          DCB      " (framerate).  Note, adjusting this value lower will al"
000e17  616d6572
000e1b  61746529
000e1f  2e20204e
000e23  6f74652c
000e27  2061646a
000e2b  75737469
000e2f  6e672074
000e33  68697320
000e37  76616c75
000e3b  65206c6f
000e3f  77657220
000e43  77696c6c
000e47  20616c  
000e4a  6c6f7720          DCB      "low Pixy to capture frames with less noise and in less "
000e4e  50697879
000e52  20746f20
000e56  63617074
000e5a  75726520
000e5e  6672616d
000e62  65732077
000e66  69746820
000e6a  6c657373
000e6e  206e6f69
000e72  73652061
000e76  6e642069
000e7a  6e206c65
000e7e  737320  
000e81  6c696768          DCB      "light. (default 61)",0
000e85  742e2028
000e89  64656661
000e8d  756c7420
000e91  36312900

                          AREA ||.data||, DATA, ALIGN=2

                  g_mode
000000  00                DCB      0x00
                  g_awb
000001  01                DCB      0x01
                  g_aec
000002  01                DCB      0x01
                  g_brightness
000003  32                DCB      0x32
                  g_saturation
000004  5a00              DCB      0x5a,0x00
                  g_getFrameM0
000006  ffff              DCW      0xffff
                  g_getTimingM0
000008  ffff              DCW      0xffff
00000a  0000              DCB      0x00,0x00
                  g_sccb
                          DCD      0x00000000
                  g_aecValue
                          DCD      0x00000000
                  g_awbValue
                          DCD      0x00000000
                  g_rawFrame
                          %        8

                          AREA ||.init_array||, DATA, READONLY, INIT_ARRAY, ALIGN=2

                          DCD      0x00000000
                          RELOC 38, __sti___10_camera_cpp_g_sccb

;*** Start embedded assembler ***

#line 1 "src\\camera.cpp"
	AREA ||.emb_text||, CODE
	THUMB
	EXPORT |__asm___10_camera_cpp_g_sccb___Z7__REV16j|
#line 130 "..\\common\\inc\\core_cmInstr.h"
|__asm___10_camera_cpp_g_sccb___Z7__REV16j| PROC
#line 131

 rev16 r0, r0
 bx lr
	ENDP
	AREA ||.emb_text||, CODE
	THUMB
	EXPORT |__asm___10_camera_cpp_g_sccb___Z7__REVSHi|
#line 144
|__asm___10_camera_cpp_g_sccb___Z7__REVSHi| PROC
#line 145

 revsh r0, r0
 bx lr
	ENDP

;*** End   embedded assembler ***
